
Keyboard_Frec.elf:     file format elf32-littlearm

Sections:
Idx Name          Size      VMA       LMA       File off  Algn
  0 .isr_vector   0000010c  08000000  08000000  00001000  2**0
                  CONTENTS, ALLOC, LOAD, READONLY, DATA
  1 .text         00002200  0800010c  0800010c  0000110c  2**2
                  CONTENTS, ALLOC, LOAD, READONLY, CODE
  2 .rodata       0000025c  0800230c  0800230c  0000330c  2**2
                  CONTENTS, ALLOC, LOAD, READONLY, DATA
  3 .ARM.extab    00000000  08002568  08002568  00004060  2**0
                  CONTENTS, READONLY
  4 .ARM          00000008  08002568  08002568  00003568  2**2
                  CONTENTS, ALLOC, LOAD, READONLY, DATA
  5 .preinit_array 00000000  08002570  08002570  00004060  2**0
                  CONTENTS, ALLOC, LOAD, DATA
  6 .init_array   00000004  08002570  08002570  00003570  2**2
                  CONTENTS, ALLOC, LOAD, READONLY, DATA
  7 .fini_array   00000004  08002574  08002574  00003574  2**2
                  CONTENTS, ALLOC, LOAD, READONLY, DATA
  8 .data         00000060  20000000  08002578  00004000  2**2
                  CONTENTS, ALLOC, LOAD, DATA
  9 .bss          00001448  20000060  080025d8  00004060  2**3
                  ALLOC
 10 ._user_heap_stack 00000a00  200014a8  080025d8  000044a8  2**0
                  ALLOC
 11 .ARM.attributes 00000029  00000000  00000000  00004060  2**0
                  CONTENTS, READONLY
 12 .debug_info   0001100f  00000000  00000000  00004089  2**0
                  CONTENTS, READONLY, DEBUGGING, OCTETS
 13 .debug_abbrev 0000291c  00000000  00000000  00015098  2**0
                  CONTENTS, READONLY, DEBUGGING, OCTETS
 14 .debug_aranges 00000bd0  00000000  00000000  000179b8  2**3
                  CONTENTS, READONLY, DEBUGGING, OCTETS
 15 .debug_macro  00002230  00000000  00000000  00018588  2**0
                  CONTENTS, READONLY, DEBUGGING, OCTETS
 16 .debug_line   00014853  00000000  00000000  0001a7b8  2**0
                  CONTENTS, READONLY, DEBUGGING, OCTETS
 17 .debug_str    0008a0d2  00000000  00000000  0002f00b  2**0
                  CONTENTS, READONLY, DEBUGGING, OCTETS
 18 .comment      00000043  00000000  00000000  000b90dd  2**0
                  CONTENTS, READONLY
 19 .debug_loclists 0000bb8b  00000000  00000000  000b9120  2**0
                  CONTENTS, READONLY, DEBUGGING, OCTETS
 20 .debug_rnglists 000015c9  00000000  00000000  000c4cab  2**0
                  CONTENTS, READONLY, DEBUGGING, OCTETS
 21 .debug_frame  00002298  00000000  00000000  000c6274  2**2
                  CONTENTS, READONLY, DEBUGGING, OCTETS
 22 .debug_line_str 00000056  00000000  00000000  000c850c  2**0
                  CONTENTS, READONLY, DEBUGGING, OCTETS

Disassembly of section .text:

0800010c <__do_global_dtors_aux>:
 800010c:	b510      	push	{r4, lr}
 800010e:	4c05      	ldr	r4, [pc, #20]	@ (8000124 <__do_global_dtors_aux+0x18>)
 8000110:	7823      	ldrb	r3, [r4, #0]
 8000112:	b933      	cbnz	r3, 8000122 <__do_global_dtors_aux+0x16>
 8000114:	4b04      	ldr	r3, [pc, #16]	@ (8000128 <__do_global_dtors_aux+0x1c>)
 8000116:	b113      	cbz	r3, 800011e <__do_global_dtors_aux+0x12>
 8000118:	4804      	ldr	r0, [pc, #16]	@ (800012c <__do_global_dtors_aux+0x20>)
 800011a:	f3af 8000 	nop.w
 800011e:	2301      	movs	r3, #1
 8000120:	7023      	strb	r3, [r4, #0]
 8000122:	bd10      	pop	{r4, pc}
 8000124:	20000060 	.word	0x20000060
 8000128:	00000000 	.word	0x00000000
 800012c:	080022f4 	.word	0x080022f4

08000130 <frame_dummy>:
 8000130:	b508      	push	{r3, lr}
 8000132:	4b03      	ldr	r3, [pc, #12]	@ (8000140 <frame_dummy+0x10>)
 8000134:	b11b      	cbz	r3, 800013e <frame_dummy+0xe>
 8000136:	4903      	ldr	r1, [pc, #12]	@ (8000144 <frame_dummy+0x14>)
 8000138:	4803      	ldr	r0, [pc, #12]	@ (8000148 <frame_dummy+0x18>)
 800013a:	f3af 8000 	nop.w
 800013e:	bd08      	pop	{r3, pc}
 8000140:	00000000 	.word	0x00000000
 8000144:	20000064 	.word	0x20000064
 8000148:	080022f4 	.word	0x080022f4

0800014c <strlen>:
 800014c:	4603      	mov	r3, r0
 800014e:	f813 2b01 	ldrb.w	r2, [r3], #1
 8000152:	2a00      	cmp	r2, #0
 8000154:	d1fb      	bne.n	800014e <strlen+0x2>
 8000156:	1a18      	subs	r0, r3, r0
 8000158:	3801      	subs	r0, #1
 800015a:	4770      	bx	lr

0800015c <ili9488_GetLcdPixelWidth>:
  * @retval The Lcd Pixel Width
  */
uint16_t ili9488_GetLcdPixelWidth(void)
{
  return ILI9488_MAX_X + 1;
}
 800015c:	f44f 70f0 	mov.w	r0, #480	@ 0x1e0
 8000160:	4770      	bx	lr
 8000162:	bf00      	nop

08000164 <ili9488_GetLcdPixelHeight>:
  * @retval The Lcd Pixel Height
  */
uint16_t ili9488_GetLcdPixelHeight(void)
{
  return ILI9488_MAX_Y + 1;
}
 8000164:	f44f 70a0 	mov.w	r0, #320	@ 0x140
 8000168:	4770      	bx	lr
 800016a:	bf00      	nop

0800016c <ili9488_Init>:
{
 800016c:	b510      	push	{r4, lr}
  if((Is_ili9488_Initialized & ILI9488_LCD_INITIALIZED) == 0)
 800016e:	4c3f      	ldr	r4, [pc, #252]	@ (800026c <ili9488_Init+0x100>)
 8000170:	7823      	ldrb	r3, [r4, #0]
 8000172:	07da      	lsls	r2, r3, #31
 8000174:	d407      	bmi.n	8000186 <ili9488_Init+0x1a>
    Is_ili9488_Initialized |= ILI9488_LCD_INITIALIZED;
 8000176:	f043 0201 	orr.w	r2, r3, #1
    if((Is_ili9488_Initialized & ILI9488_IO_INITIALIZED) == 0)
 800017a:	079b      	lsls	r3, r3, #30
    Is_ili9488_Initialized |= ILI9488_LCD_INITIALIZED;
 800017c:	7022      	strb	r2, [r4, #0]
    if((Is_ili9488_Initialized & ILI9488_IO_INITIALIZED) == 0)
 800017e:	d570      	bpl.n	8000262 <ili9488_Init+0xf6>
    Is_ili9488_Initialized |= ILI9488_IO_INITIALIZED;
 8000180:	f042 0202 	orr.w	r2, r2, #2
 8000184:	7022      	strb	r2, [r4, #0]
  LCD_Delay(105);
 8000186:	2069      	movs	r0, #105	@ 0x69
 8000188:	f000 fab8 	bl	80006fc <LCD_Delay>
  LCD_IO_WriteCmd8(ILI9488_SWRESET);
 800018c:	2001      	movs	r0, #1
 800018e:	f000 fb27 	bl	80007e0 <LCD_IO_WriteCmd8>
  LCD_Delay(5);
 8000192:	2005      	movs	r0, #5
 8000194:	f000 fab2 	bl	80006fc <LCD_Delay>
  LCD_IO_WriteCmd8MultipleData8(ILI9488_GMCTRP1, (uint8_t *)"\x00\x03\x09\x08\x16\x0A\x3F\x78\x4C\x09\x0A\x08\x16\x1A\x0F", 15); //Е0
 8000198:	220f      	movs	r2, #15
 800019a:	20e0      	movs	r0, #224	@ 0xe0
 800019c:	4934      	ldr	r1, [pc, #208]	@ (8000270 <ili9488_Init+0x104>)
 800019e:	f000 fb97 	bl	80008d0 <LCD_IO_WriteCmd8MultipleData8>
  LCD_IO_WriteCmd8MultipleData8(ILI9488_GMCTRN1, (uint8_t *)"\x00\x16\x19\x03\x0F\x05\x32\x45\x46\x04\x0E\x0D\x35\x37\x0F", 15);//Е1
 80001a2:	220f      	movs	r2, #15
 80001a4:	20e1      	movs	r0, #225	@ 0xe1
 80001a6:	4933      	ldr	r1, [pc, #204]	@ (8000274 <ili9488_Init+0x108>)
 80001a8:	f000 fb92 	bl	80008d0 <LCD_IO_WriteCmd8MultipleData8>
  LCD_IO_WriteCmd8MultipleData8(ILI9488_PWCTR1, (uint8_t *)"\x17\x15", 2);//c0
 80001ac:	2202      	movs	r2, #2
 80001ae:	4932      	ldr	r1, [pc, #200]	@ (8000278 <ili9488_Init+0x10c>)
 80001b0:	20c0      	movs	r0, #192	@ 0xc0
 80001b2:	f000 fb8d 	bl	80008d0 <LCD_IO_WriteCmd8MultipleData8>
  LCD_Delay(5);
 80001b6:	2005      	movs	r0, #5
 80001b8:	f000 faa0 	bl	80006fc <LCD_Delay>
  LCD_IO_WriteCmd8(ILI9488_PWCTR2); LCD_IO_WriteData8(0x41);
 80001bc:	20c1      	movs	r0, #193	@ 0xc1
 80001be:	f000 fb0f 	bl	80007e0 <LCD_IO_WriteCmd8>
 80001c2:	2041      	movs	r0, #65	@ 0x41
 80001c4:	f000 fb2c 	bl	8000820 <LCD_IO_WriteData8>
  LCD_Delay(5);
 80001c8:	2005      	movs	r0, #5
 80001ca:	f000 fa97 	bl	80006fc <LCD_Delay>
  LCD_IO_WriteCmd8MultipleData8(ILI9488_VMCTR1, (uint8_t *)"\x00\x12\x80", 3);
 80001ce:	2203      	movs	r2, #3
 80001d0:	492a      	ldr	r1, [pc, #168]	@ (800027c <ili9488_Init+0x110>)
 80001d2:	20c5      	movs	r0, #197	@ 0xc5
 80001d4:	f000 fb7c 	bl	80008d0 <LCD_IO_WriteCmd8MultipleData8>
  LCD_Delay(5);
 80001d8:	2005      	movs	r0, #5
 80001da:	f000 fa8f 	bl	80006fc <LCD_Delay>
  LCD_IO_WriteCmd8(ILI9488_PIXFMT); LCD_IO_WriteData8(0x66); // Interface Pixel Format (24 bit)
 80001de:	203a      	movs	r0, #58	@ 0x3a
 80001e0:	f000 fafe 	bl	80007e0 <LCD_IO_WriteCmd8>
 80001e4:	2066      	movs	r0, #102	@ 0x66
 80001e6:	f000 fb1b 	bl	8000820 <LCD_IO_WriteData8>
  LCD_IO_WriteCmd8(ILI9488_IMCTR); LCD_IO_WriteData8(0x80); // Interface Mode Control (SDO NOT USE)
 80001ea:	20b0      	movs	r0, #176	@ 0xb0
 80001ec:	f000 faf8 	bl	80007e0 <LCD_IO_WriteCmd8>
 80001f0:	2080      	movs	r0, #128	@ 0x80
 80001f2:	f000 fb15 	bl	8000820 <LCD_IO_WriteData8>
  LCD_IO_WriteCmd8(ILI9488_FRMCTR1); LCD_IO_WriteData8(0xA0); // Frame rate (60Hz)
 80001f6:	20b1      	movs	r0, #177	@ 0xb1
 80001f8:	f000 faf2 	bl	80007e0 <LCD_IO_WriteCmd8>
 80001fc:	20a0      	movs	r0, #160	@ 0xa0
 80001fe:	f000 fb0f 	bl	8000820 <LCD_IO_WriteData8>
  LCD_IO_WriteCmd8(ILI9488_INVON);                            // Display Inversion On
 8000202:	2021      	movs	r0, #33	@ 0x21
 8000204:	f000 faec 	bl	80007e0 <LCD_IO_WriteCmd8>
  LCD_IO_WriteCmd8(ILI9488_INVCTR); LCD_IO_WriteData8(0x02); // Display Inversion Control (2-dot)
 8000208:	20b4      	movs	r0, #180	@ 0xb4
 800020a:	f000 fae9 	bl	80007e0 <LCD_IO_WriteCmd8>
 800020e:	2002      	movs	r0, #2
 8000210:	f000 fb06 	bl	8000820 <LCD_IO_WriteData8>
  LCD_IO_WriteCmd8MultipleData8(ILI9488_DFUNCTR, (uint8_t *)"\x02\x02", 2); // Display Function Control RGB/MCU Interface Control
 8000214:	2202      	movs	r2, #2
 8000216:	491a      	ldr	r1, [pc, #104]	@ (8000280 <ili9488_Init+0x114>)
 8000218:	20b6      	movs	r0, #182	@ 0xb6
 800021a:	f000 fb59 	bl	80008d0 <LCD_IO_WriteCmd8MultipleData8>
  LCD_IO_WriteCmd8(ILI9488_IMGFUNCT); LCD_IO_WriteData8(0x00); // Set Image Functio (Disable 24 bit data)
 800021e:	20e9      	movs	r0, #233	@ 0xe9
 8000220:	f000 fade 	bl	80007e0 <LCD_IO_WriteCmd8>
 8000224:	2000      	movs	r0, #0
 8000226:	f000 fafb 	bl	8000820 <LCD_IO_WriteData8>
  LCD_IO_WriteCmd8MultipleData8(ILI9488_ADJCTR3, (uint8_t *)"\xA9\x51\x2C\x82", 4); // Adjust Control (D7 stream, loose)
 800022a:	2204      	movs	r2, #4
 800022c:	4915      	ldr	r1, [pc, #84]	@ (8000284 <ili9488_Init+0x118>)
 800022e:	20f7      	movs	r0, #247	@ 0xf7
 8000230:	f000 fb4e 	bl	80008d0 <LCD_IO_WriteCmd8MultipleData8>
  LCD_Delay(5);
 8000234:	2005      	movs	r0, #5
 8000236:	f000 fa61 	bl	80006fc <LCD_Delay>
  LCD_IO_WriteCmd8(ILI9488_SLPOUT);      // Exit Sleep
 800023a:	2011      	movs	r0, #17
 800023c:	f000 fad0 	bl	80007e0 <LCD_IO_WriteCmd8>
  LCD_Delay(120);
 8000240:	2078      	movs	r0, #120	@ 0x78
 8000242:	f000 fa5b 	bl	80006fc <LCD_Delay>
  LCD_IO_WriteCmd8(ILI9488_DISPON);      // Display on
 8000246:	2029      	movs	r0, #41	@ 0x29
 8000248:	f000 faca 	bl	80007e0 <LCD_IO_WriteCmd8>
  LCD_Delay(5);
 800024c:	2005      	movs	r0, #5
 800024e:	f000 fa55 	bl	80006fc <LCD_Delay>
  LCD_IO_WriteCmd8(ILI9488_MADCTL); LCD_IO_WriteData8( ILI9488_MAD_DATA_RIGHT_THEN_DOWN );                 //LCD_IO_WriteData8( ILI9488_MAD_DATA_RIGHT_THEN_DOWN ); //36  ILI9488_MAD_DATA_RIGHT_THEN_UP
 8000252:	2036      	movs	r0, #54	@ 0x36
 8000254:	f000 fac4 	bl	80007e0 <LCD_IO_WriteCmd8>
}
 8000258:	e8bd 4010 	ldmia.w	sp!, {r4, lr}
  LCD_IO_WriteCmd8(ILI9488_MADCTL); LCD_IO_WriteData8( ILI9488_MAD_DATA_RIGHT_THEN_DOWN );                 //LCD_IO_WriteData8( ILI9488_MAD_DATA_RIGHT_THEN_DOWN ); //36  ILI9488_MAD_DATA_RIGHT_THEN_UP
 800025c:	2028      	movs	r0, #40	@ 0x28
 800025e:	f000 badf 	b.w	8000820 <LCD_IO_WriteData8>
      LCD_IO_Init();
 8000262:	f000 fa5b 	bl	800071c <LCD_IO_Init>
    Is_ili9488_Initialized |= ILI9488_IO_INITIALIZED;
 8000266:	7822      	ldrb	r2, [r4, #0]
 8000268:	e78a      	b.n	8000180 <ili9488_Init+0x14>
 800026a:	bf00      	nop
 800026c:	20000088 	.word	0x20000088
 8000270:	0800230c 	.word	0x0800230c
 8000274:	0800231c 	.word	0x0800231c
 8000278:	08002530 	.word	0x08002530
 800027c:	0800232c 	.word	0x0800232c
 8000280:	08002534 	.word	0x08002534
 8000284:	08002538 	.word	0x08002538

08000288 <ili9488_SetCursor>:
  * @param  Xpos: specifies the X position.
  * @param  Ypos: specifies the Y position.
  * @retval None
  */
void ili9488_SetCursor(uint16_t Xpos, uint16_t Ypos)
{
 8000288:	b570      	push	{r4, r5, r6, lr}
 800028a:	4605      	mov	r5, r0
 800028c:	460c      	mov	r4, r1
  ILI9488_LCDMUTEX_PUSH();
  ILI9488_SETCURSOR(Xpos, Ypos);
 800028e:	0a2e      	lsrs	r6, r5, #8
 8000290:	202a      	movs	r0, #42	@ 0x2a
 8000292:	f000 faa5 	bl	80007e0 <LCD_IO_WriteCmd8>
 8000296:	b2ed      	uxtb	r5, r5
 8000298:	4630      	mov	r0, r6
 800029a:	f000 fac1 	bl	8000820 <LCD_IO_WriteData8>
 800029e:	4628      	mov	r0, r5
 80002a0:	f000 fabe 	bl	8000820 <LCD_IO_WriteData8>
 80002a4:	4630      	mov	r0, r6
 80002a6:	f000 fabb 	bl	8000820 <LCD_IO_WriteData8>
 80002aa:	4628      	mov	r0, r5
 80002ac:	f000 fab8 	bl	8000820 <LCD_IO_WriteData8>
 80002b0:	0a25      	lsrs	r5, r4, #8
 80002b2:	202b      	movs	r0, #43	@ 0x2b
 80002b4:	f000 fa94 	bl	80007e0 <LCD_IO_WriteCmd8>
 80002b8:	b2e4      	uxtb	r4, r4
 80002ba:	4628      	mov	r0, r5
 80002bc:	f000 fab0 	bl	8000820 <LCD_IO_WriteData8>
 80002c0:	4620      	mov	r0, r4
 80002c2:	f000 faad 	bl	8000820 <LCD_IO_WriteData8>
 80002c6:	4628      	mov	r0, r5
 80002c8:	f000 faaa 	bl	8000820 <LCD_IO_WriteData8>
 80002cc:	4620      	mov	r0, r4
  ILI9488_LCDMUTEX_POP();
}
 80002ce:	e8bd 4070 	ldmia.w	sp!, {r4, r5, r6, lr}
  ILI9488_SETCURSOR(Xpos, Ypos);
 80002d2:	f000 baa5 	b.w	8000820 <LCD_IO_WriteData8>
 80002d6:	bf00      	nop

080002d8 <ili9488_SetDisplayWindow>:
  * @param  Height: display window height.
  * @param  Width:  display window width.
  * @retval None
  */
void ili9488_SetDisplayWindow(uint16_t Xpos, uint16_t Ypos, uint16_t Width, uint16_t Height)
{
 80002d8:	e92d 43f8 	stmdb	sp!, {r3, r4, r5, r6, r7, r8, r9, lr}
 80002dc:	4605      	mov	r5, r0
 80002de:	4616      	mov	r6, r2
 80002e0:	460c      	mov	r4, r1
 80002e2:	461f      	mov	r7, r3
  ILI9488_LCDMUTEX_PUSH();

  #if ILI9488_INTERFACE == 0
  yStart = Ypos; yEnd = Ypos + Height - 1;
 80002e4:	f8df e070 	ldr.w	lr, [pc, #112]	@ 8000358 <ili9488_SetDisplayWindow+0x80>
 80002e8:	f8df c070 	ldr.w	ip, [pc, #112]	@ 800035c <ili9488_SetDisplayWindow+0x84>
 80002ec:	f103 39ff 	add.w	r9, r3, #4294967295
 80002f0:	eb01 0309 	add.w	r3, r1, r9
  LCD_IO_WriteCmd8(ILI9488_CASET); LCD_IO_WriteData16_to_2x8(Xpos); LCD_IO_WriteData16_to_2x8(Xpos + Width - 1);
 80002f4:	202a      	movs	r0, #42	@ 0x2a
  yStart = Ypos; yEnd = Ypos + Height - 1;
 80002f6:	f8ae 1000 	strh.w	r1, [lr]
 80002fa:	f8ac 3000 	strh.w	r3, [ip]
  LCD_IO_WriteCmd8(ILI9488_CASET); LCD_IO_WriteData16_to_2x8(Xpos); LCD_IO_WriteData16_to_2x8(Xpos + Width - 1);
 80002fe:	fa5f f885 	uxtb.w	r8, r5
 8000302:	f000 fa6d 	bl	80007e0 <LCD_IO_WriteCmd8>
 8000306:	0a28      	lsrs	r0, r5, #8
 8000308:	f000 fa8a 	bl	8000820 <LCD_IO_WriteData8>
 800030c:	4640      	mov	r0, r8
 800030e:	f000 fa87 	bl	8000820 <LCD_IO_WriteData8>
 8000312:	19a8      	adds	r0, r5, r6
 8000314:	3801      	subs	r0, #1
 8000316:	f3c0 2007 	ubfx	r0, r0, #8, #8
 800031a:	3e01      	subs	r6, #1
 800031c:	f000 fa80 	bl	8000820 <LCD_IO_WriteData8>
 8000320:	eb08 0006 	add.w	r0, r8, r6
 8000324:	b2c0      	uxtb	r0, r0
 8000326:	f000 fa7b 	bl	8000820 <LCD_IO_WriteData8>
  LCD_IO_WriteCmd8(ILI9488_PASET); LCD_IO_WriteData16_to_2x8(Ypos); LCD_IO_WriteData16_to_2x8(Ypos + Height - 1);
 800032a:	202b      	movs	r0, #43	@ 0x2b
 800032c:	f000 fa58 	bl	80007e0 <LCD_IO_WriteCmd8>
 8000330:	b2e5      	uxtb	r5, r4
 8000332:	0a20      	lsrs	r0, r4, #8
 8000334:	f000 fa74 	bl	8000820 <LCD_IO_WriteData8>
 8000338:	4628      	mov	r0, r5
 800033a:	f000 fa71 	bl	8000820 <LCD_IO_WriteData8>
 800033e:	19e0      	adds	r0, r4, r7
 8000340:	3801      	subs	r0, #1
 8000342:	f3c0 2007 	ubfx	r0, r0, #8, #8
 8000346:	f000 fa6b 	bl	8000820 <LCD_IO_WriteData8>
 800034a:	eb05 0009 	add.w	r0, r5, r9
 800034e:	b2c0      	uxtb	r0, r0
  LCD_IO_WriteCmd8(ILI9488_PASET); LCD_IO_WriteData16_to_2x8(ILI9488_LCD_PIXEL_WIDTH - Height - Ypos); LCD_IO_WriteData16_to_2x8(ILI9488_LCD_PIXEL_WIDTH - 1 - Ypos);
  #endif
  #endif

  ILI9488_LCDMUTEX_POP();
}
 8000350:	e8bd 43f8 	ldmia.w	sp!, {r3, r4, r5, r6, r7, r8, r9, lr}
  LCD_IO_WriteCmd8(ILI9488_PASET); LCD_IO_WriteData16_to_2x8(Ypos); LCD_IO_WriteData16_to_2x8(Ypos + Height - 1);
 8000354:	f000 ba64 	b.w	8000820 <LCD_IO_WriteData8>
 8000358:	20000086 	.word	0x20000086
 800035c:	20000084 	.word	0x20000084

08000360 <ili9488_DisplayOn>:
{
 8000360:	b508      	push	{r3, lr}
  LCD_IO_WriteCmd8(ILI9488_SLPOUT);      // Display on
 8000362:	2011      	movs	r0, #17
 8000364:	f000 fa3c 	bl	80007e0 <LCD_IO_WriteCmd8>
}
 8000368:	e8bd 4008 	ldmia.w	sp!, {r3, lr}
  LCD_IO_Bl_OnOff(1);
 800036c:	2001      	movs	r0, #1
 800036e:	f000 b9c7 	b.w	8000700 <LCD_IO_Bl_OnOff>
 8000372:	bf00      	nop

08000374 <ili9488_DisplayOff>:
{
 8000374:	b508      	push	{r3, lr}
  LCD_IO_WriteCmd8(ILI9488_SLPIN);       // Display off
 8000376:	2010      	movs	r0, #16
 8000378:	f000 fa32 	bl	80007e0 <LCD_IO_WriteCmd8>
}
 800037c:	e8bd 4008 	ldmia.w	sp!, {r3, lr}
  LCD_IO_Bl_OnOff(0);
 8000380:	2000      	movs	r0, #0
 8000382:	f000 b9bd 	b.w	8000700 <LCD_IO_Bl_OnOff>
 8000386:	bf00      	nop

08000388 <ili9488_ReadID>:
  uint32_t id = 0;
 8000388:	2200      	movs	r2, #0
{
 800038a:	b500      	push	{lr}
  if(Is_ili9488_Initialized == 0)
 800038c:	4b0c      	ldr	r3, [pc, #48]	@ (80003c0 <ili9488_ReadID+0x38>)
{
 800038e:	b083      	sub	sp, #12
  if(Is_ili9488_Initialized == 0)
 8000390:	781b      	ldrb	r3, [r3, #0]
  uint32_t id = 0;
 8000392:	9201      	str	r2, [sp, #4]
  if(Is_ili9488_Initialized == 0)
 8000394:	b18b      	cbz	r3, 80003ba <ili9488_ReadID+0x32>
  LCD_IO_ReadCmd8MultipleData8(0x04, (uint8_t *)&id, 3, 0);
 8000396:	2004      	movs	r0, #4
 8000398:	2300      	movs	r3, #0
 800039a:	eb0d 0100 	add.w	r1, sp, r0
 800039e:	2203      	movs	r2, #3
 80003a0:	f000 fb10 	bl	80009c4 <LCD_IO_ReadCmd8MultipleData8>
  if(id == 0x00668054)
 80003a4:	4b07      	ldr	r3, [pc, #28]	@ (80003c4 <ili9488_ReadID+0x3c>)
  id <<= 1;
 80003a6:	9a01      	ldr	r2, [sp, #4]
  return 0;
 80003a8:	f249 4088 	movw	r0, #38024	@ 0x9488
 80003ac:	ebb3 0f42 	cmp.w	r3, r2, lsl #1
}
 80003b0:	bf18      	it	ne
 80003b2:	2000      	movne	r0, #0
 80003b4:	b003      	add	sp, #12
 80003b6:	f85d fb04 	ldr.w	pc, [sp], #4
    ili9488_Init();
 80003ba:	f7ff fed7 	bl	800016c <ili9488_Init>
 80003be:	e7ea      	b.n	8000396 <ili9488_ReadID+0xe>
 80003c0:	20000088 	.word	0x20000088
 80003c4:	00668054 	.word	0x00668054

080003c8 <ili9488_ReadPixel>:
{
 80003c8:	b570      	push	{r4, r5, r6, lr}
 80003ca:	4605      	mov	r5, r0
 80003cc:	460c      	mov	r4, r1
 80003ce:	b082      	sub	sp, #8
  ILI9488_SETCURSOR(Xpos, Ypos);
 80003d0:	0a2e      	lsrs	r6, r5, #8
 80003d2:	202a      	movs	r0, #42	@ 0x2a
 80003d4:	f000 fa04 	bl	80007e0 <LCD_IO_WriteCmd8>
 80003d8:	b2ed      	uxtb	r5, r5
 80003da:	4630      	mov	r0, r6
 80003dc:	f000 fa20 	bl	8000820 <LCD_IO_WriteData8>
 80003e0:	4628      	mov	r0, r5
 80003e2:	f000 fa1d 	bl	8000820 <LCD_IO_WriteData8>
 80003e6:	4630      	mov	r0, r6
 80003e8:	f000 fa1a 	bl	8000820 <LCD_IO_WriteData8>
 80003ec:	4628      	mov	r0, r5
 80003ee:	f000 fa17 	bl	8000820 <LCD_IO_WriteData8>
 80003f2:	0a25      	lsrs	r5, r4, #8
 80003f4:	202b      	movs	r0, #43	@ 0x2b
 80003f6:	f000 f9f3 	bl	80007e0 <LCD_IO_WriteCmd8>
 80003fa:	b2e4      	uxtb	r4, r4
 80003fc:	4628      	mov	r0, r5
 80003fe:	f000 fa0f 	bl	8000820 <LCD_IO_WriteData8>
 8000402:	4620      	mov	r0, r4
 8000404:	f000 fa0c 	bl	8000820 <LCD_IO_WriteData8>
 8000408:	4628      	mov	r0, r5
 800040a:	f000 fa09 	bl	8000820 <LCD_IO_WriteData8>
 800040e:	4620      	mov	r0, r4
 8000410:	f000 fa06 	bl	8000820 <LCD_IO_WriteData8>
  LCD_IO_ReadCmd8MultipleData24to16(ILI9488_RAMRD, &ret, 1, 1);
 8000414:	2301      	movs	r3, #1
 8000416:	202e      	movs	r0, #46	@ 0x2e
 8000418:	461a      	mov	r2, r3
 800041a:	f10d 0106 	add.w	r1, sp, #6
 800041e:	f000 fad3 	bl	80009c8 <LCD_IO_ReadCmd8MultipleData24to16>
}
 8000422:	f8bd 0006 	ldrh.w	r0, [sp, #6]
 8000426:	b002      	add	sp, #8
 8000428:	bd70      	pop	{r4, r5, r6, pc}
 800042a:	bf00      	nop

0800042c <ili9488_ReadRGBImage>:
  * @param  Ysize: Image Y size in the LCD
  * @retval None
  * @brief  Draw direction: right then down
  */
void ili9488_ReadRGBImage(uint16_t Xpos, uint16_t Ypos, uint16_t Xsize, uint16_t Ysize, uint16_t *pdata)
{
 800042c:	b570      	push	{r4, r5, r6, lr}
 800042e:	461d      	mov	r5, r3
 8000430:	4614      	mov	r4, r2
 8000432:	9e04      	ldr	r6, [sp, #16]
  uint32_t size = 0;
  size = (Xsize * Ysize);
  ILI9488_LCDMUTEX_PUSH();
  ili9488_SetDisplayWindow(Xpos, Ypos, Xsize, Ysize);
 8000434:	f7ff ff50 	bl	80002d8 <ili9488_SetDisplayWindow>
  #if ILI9488_INTERFACE == 0
  LCD_IO_ReadCmd8MultipleData24to16(ILI9488_RAMRD, pdata, size, 1);
 8000438:	4631      	mov	r1, r6
 800043a:	fb05 f204 	mul.w	r2, r5, r4
  #elif ILI9488_INTERFACE == 1
  LCD_IO_ReadCmd8MultipleData16(ILI9488_RAMRD, pdata, size, 1);
  #endif
  ILI9488_LCDMUTEX_POP();
}
 800043e:	e8bd 4070 	ldmia.w	sp!, {r4, r5, r6, lr}
  LCD_IO_ReadCmd8MultipleData24to16(ILI9488_RAMRD, pdata, size, 1);
 8000442:	2301      	movs	r3, #1
 8000444:	202e      	movs	r0, #46	@ 0x2e
 8000446:	f000 babf 	b.w	80009c8 <LCD_IO_ReadCmd8MultipleData24to16>
 800044a:	bf00      	nop

0800044c <ili9488_Scroll>:
  * @param  TopFix    : Top fix size [pixel]
  * @param  BottonFix : Botton fix size [pixel]
  * @retval None
  */
void ili9488_Scroll(int16_t Scroll, uint16_t TopFix, uint16_t BottonFix)
{
 800044c:	b538      	push	{r3, r4, r5, lr}
  if(Scroll < 0)
    Scroll = scrparam[2] + Scroll + scrparam[1];
  else
    Scroll = Scroll + scrparam[1];
  #elif (ILI9488_ORIENTATION == 1)
  if((TopFix != scrparam[1]) || (BottonFix != scrparam[3]))
 800044e:	4d16      	ldr	r5, [pc, #88]	@ (80004a8 <ili9488_Scroll+0x5c>)
{
 8000450:	4604      	mov	r4, r0
  if((TopFix != scrparam[1]) || (BottonFix != scrparam[3]))
 8000452:	886b      	ldrh	r3, [r5, #2]
 8000454:	428b      	cmp	r3, r1
 8000456:	d102      	bne.n	800045e <ili9488_Scroll+0x12>
 8000458:	88eb      	ldrh	r3, [r5, #6]
 800045a:	4293      	cmp	r3, r2
 800045c:	d00b      	beq.n	8000476 <ili9488_Scroll+0x2a>
  {
    scrparam[1] = TopFix;
    scrparam[3] = BottonFix;
    scrparam[2] = ILI9488_LCD_PIXEL_HEIGHT - TopFix - BottonFix;
 800045e:	f5c2 73f0 	rsb	r3, r2, #480	@ 0x1e0
 8000462:	1a5b      	subs	r3, r3, r1
    scrparam[1] = TopFix;
 8000464:	8069      	strh	r1, [r5, #2]
    scrparam[3] = BottonFix;
 8000466:	80ea      	strh	r2, [r5, #6]
    LCD_IO_WriteCmd8MultipleData16(ILI9488_VSCRDEF, &scrparam[1], 3);
 8000468:	4910      	ldr	r1, [pc, #64]	@ (80004ac <ili9488_Scroll+0x60>)
 800046a:	2203      	movs	r2, #3
 800046c:	2033      	movs	r0, #51	@ 0x33
    scrparam[2] = ILI9488_LCD_PIXEL_HEIGHT - TopFix - BottonFix;
 800046e:	80ab      	strh	r3, [r5, #4]
    LCD_IO_WriteCmd8MultipleData16(ILI9488_VSCRDEF, &scrparam[1], 3);
 8000470:	f000 fa6a 	bl	8000948 <LCD_IO_WriteCmd8MultipleData16>
  }
  Scroll = (0 - Scroll) % scrparam[2];
  if(Scroll < 0)
    Scroll = scrparam[2] + Scroll + scrparam[1];
 8000474:	8869      	ldrh	r1, [r5, #2]
  Scroll = (0 - Scroll) % scrparam[2];
 8000476:	88ab      	ldrh	r3, [r5, #4]
 8000478:	4260      	negs	r0, r4
 800047a:	fb90 f2f3 	sdiv	r2, r0, r3
 800047e:	fb03 0012 	mls	r0, r3, r2, r0
    Scroll = scrparam[2] + Scroll + scrparam[1];
 8000482:	b282      	uxth	r2, r0
  if(Scroll < 0)
 8000484:	0400      	lsls	r0, r0, #16
    Scroll = scrparam[2] + Scroll + scrparam[1];
 8000486:	bf4a      	itet	mi
 8000488:	189b      	addmi	r3, r3, r2
  else
    Scroll = Scroll + scrparam[1];
 800048a:	188b      	addpl	r3, r1, r2
    Scroll = scrparam[2] + Scroll + scrparam[1];
 800048c:	185b      	addmi	r3, r3, r1
  if(Scroll < 0)
    Scroll = scrparam[2] + Scroll + scrparam[1];
  else
    Scroll = Scroll + scrparam[1];
  #endif
  if(Scroll != scrparam[0])
 800048e:	882a      	ldrh	r2, [r5, #0]
    Scroll = Scroll + scrparam[1];
 8000490:	b299      	uxth	r1, r3
 8000492:	b21b      	sxth	r3, r3
  if(Scroll != scrparam[0])
 8000494:	4293      	cmp	r3, r2
 8000496:	d100      	bne.n	800049a <ili9488_Scroll+0x4e>
  {
    scrparam[0] = Scroll;
    LCD_IO_WriteCmd8DataFill16(ILI9488_VSCRSADD, scrparam[0], 1);
  }
  ILI9488_LCDMUTEX_POP();
}
 8000498:	bd38      	pop	{r3, r4, r5, pc}
    scrparam[0] = Scroll;
 800049a:	8029      	strh	r1, [r5, #0]
    LCD_IO_WriteCmd8DataFill16(ILI9488_VSCRSADD, scrparam[0], 1);
 800049c:	2201      	movs	r2, #1
}
 800049e:	e8bd 4038 	ldmia.w	sp!, {r3, r4, r5, lr}
    LCD_IO_WriteCmd8DataFill16(ILI9488_VSCRSADD, scrparam[0], 1);
 80004a2:	2037      	movs	r0, #55	@ 0x37
 80004a4:	f000 b9d8 	b.w	8000858 <LCD_IO_WriteCmd8DataFill16>
 80004a8:	2000007c 	.word	0x2000007c
 80004ac:	2000007e 	.word	0x2000007e

080004b0 <ili9488_FillRect>:
{
 80004b0:	b5f8      	push	{r3, r4, r5, r6, r7, lr}
 80004b2:	4614      	mov	r4, r2
 80004b4:	461e      	mov	r6, r3
  uint32_t XYsize = Xsize * Ysize;
 80004b6:	fb06 f404 	mul.w	r4, r6, r4
{
 80004ba:	f8bd 5018 	ldrh.w	r5, [sp, #24]
  ili9488_SetDisplayWindow(Xpos, Ypos, Xsize, Ysize);
 80004be:	f7ff ff0b 	bl	80002d8 <ili9488_SetDisplayWindow>
  LCD_IO_WriteCmd8(ILI9488_RAMWR);
 80004c2:	202c      	movs	r0, #44	@ 0x2c
 80004c4:	f000 f98c 	bl	80007e0 <LCD_IO_WriteCmd8>
  while(XYsize--)
 80004c8:	b194      	cbz	r4, 80004f0 <ili9488_FillRect+0x40>
  LCD_IO_WriteData8((RGBCode & 0xF800) >> 8);
 80004ca:	122f      	asrs	r7, r5, #8
  LCD_IO_WriteData8((RGBCode & 0x07E0) >> 3);
 80004cc:	10ee      	asrs	r6, r5, #3
  LCD_IO_WriteData8((RGBCode & 0x001F) << 3);
 80004ce:	00ed      	lsls	r5, r5, #3
  LCD_IO_WriteData8((RGBCode & 0xF800) >> 8);
 80004d0:	f007 07f8 	and.w	r7, r7, #248	@ 0xf8
  LCD_IO_WriteData8((RGBCode & 0x07E0) >> 3);
 80004d4:	f006 06fc 	and.w	r6, r6, #252	@ 0xfc
  LCD_IO_WriteData8((RGBCode & 0x001F) << 3);
 80004d8:	b2ed      	uxtb	r5, r5
  LCD_IO_WriteData8((RGBCode & 0xF800) >> 8);
 80004da:	4638      	mov	r0, r7
 80004dc:	f000 f9a0 	bl	8000820 <LCD_IO_WriteData8>
  LCD_IO_WriteData8((RGBCode & 0x07E0) >> 3);
 80004e0:	4630      	mov	r0, r6
 80004e2:	f000 f99d 	bl	8000820 <LCD_IO_WriteData8>
  LCD_IO_WriteData8((RGBCode & 0x001F) << 3);
 80004e6:	4628      	mov	r0, r5
 80004e8:	f000 f99a 	bl	8000820 <LCD_IO_WriteData8>
  while(XYsize--)
 80004ec:	3c01      	subs	r4, #1
 80004ee:	d1f4      	bne.n	80004da <ili9488_FillRect+0x2a>
}
 80004f0:	bdf8      	pop	{r3, r4, r5, r6, r7, pc}
 80004f2:	bf00      	nop

080004f4 <ili9488_DrawRGBImage>:
{
 80004f4:	b570      	push	{r4, r5, r6, lr}
  size = (Xsize * Ysize);
 80004f6:	fb03 f502 	mul.w	r5, r3, r2
{
 80004fa:	9e04      	ldr	r6, [sp, #16]
  ili9488_SetDisplayWindow(Xpos, Ypos, Xsize, Ysize);
 80004fc:	f7ff feec 	bl	80002d8 <ili9488_SetDisplayWindow>
  LCD_IO_WriteCmd8(ILI9488_RAMWR);
 8000500:	202c      	movs	r0, #44	@ 0x2c
 8000502:	f000 f96d 	bl	80007e0 <LCD_IO_WriteCmd8>
  while(size--)
 8000506:	b195      	cbz	r5, 800052e <ili9488_DrawRGBImage+0x3a>
    ili9488_write16to24(*pdata);
 8000508:	f836 4b02 	ldrh.w	r4, [r6], #2
  LCD_IO_WriteData8((RGBCode & 0xF800) >> 8);
 800050c:	1220      	asrs	r0, r4, #8
 800050e:	f000 00f8 	and.w	r0, r0, #248	@ 0xf8
 8000512:	f000 f985 	bl	8000820 <LCD_IO_WriteData8>
  LCD_IO_WriteData8((RGBCode & 0x07E0) >> 3);
 8000516:	10e0      	asrs	r0, r4, #3
 8000518:	f000 00fc 	and.w	r0, r0, #252	@ 0xfc
 800051c:	f000 f980 	bl	8000820 <LCD_IO_WriteData8>
  LCD_IO_WriteData8((RGBCode & 0x001F) << 3);
 8000520:	00e0      	lsls	r0, r4, #3
 8000522:	f000 00f8 	and.w	r0, r0, #248	@ 0xf8
 8000526:	f000 f97b 	bl	8000820 <LCD_IO_WriteData8>
  while(size--)
 800052a:	3d01      	subs	r5, #1
 800052c:	d1ec      	bne.n	8000508 <ili9488_DrawRGBImage+0x14>
}
 800052e:	bd70      	pop	{r4, r5, r6, pc}

08000530 <ili9488_DrawBitmap>:
{
 8000530:	b5f8      	push	{r3, r4, r5, r6, r7, lr}
  LCD_IO_WriteCmd8(ILI9488_PASET); LCD_IO_WriteData16_to_2x8(ILI9488_MAX_Y - yEnd); LCD_IO_WriteData16_to_2x8(ILI9488_MAX_Y - yStart);
 8000532:	f240 143f 	movw	r4, #319	@ 0x13f
  size = *(volatile uint16_t *) (pbmp + 2);
 8000536:	8856      	ldrh	r6, [r2, #2]
  size |= (*(volatile uint16_t *) (pbmp + 4)) << 16;
 8000538:	8891      	ldrh	r1, [r2, #4]
  size = *(volatile uint16_t *) (pbmp + 2);
 800053a:	b2b6      	uxth	r6, r6
  index = *(volatile uint16_t *) (pbmp + 10);
 800053c:	8953      	ldrh	r3, [r2, #10]
  size |= (*(volatile uint16_t *) (pbmp + 4)) << 16;
 800053e:	ea46 4601 	orr.w	r6, r6, r1, lsl #16
  index |= (*(volatile uint16_t *) (pbmp + 12)) << 16;
 8000542:	8991      	ldrh	r1, [r2, #12]
  index = *(volatile uint16_t *) (pbmp + 10);
 8000544:	b29b      	uxth	r3, r3
  index |= (*(volatile uint16_t *) (pbmp + 12)) << 16;
 8000546:	ea43 4301 	orr.w	r3, r3, r1, lsl #16
  LCD_IO_WriteCmd8(ILI9488_MADCTL); LCD_IO_WriteData8(ILI9488_MAD_DATA_RIGHT_THEN_UP);
 800054a:	2036      	movs	r0, #54	@ 0x36
  pbmp += index;
 800054c:	18d5      	adds	r5, r2, r3
  size = (size - index)/2;
 800054e:	1af6      	subs	r6, r6, r3
  LCD_IO_WriteCmd8(ILI9488_PASET); LCD_IO_WriteData16_to_2x8(ILI9488_MAX_Y - yEnd); LCD_IO_WriteData16_to_2x8(ILI9488_MAX_Y - yStart);
 8000550:	4f21      	ldr	r7, [pc, #132]	@ (80005d8 <ili9488_DrawBitmap+0xa8>)
  LCD_IO_WriteCmd8(ILI9488_MADCTL); LCD_IO_WriteData8(ILI9488_MAD_DATA_RIGHT_THEN_UP);
 8000552:	f000 f945 	bl	80007e0 <LCD_IO_WriteCmd8>
 8000556:	2068      	movs	r0, #104	@ 0x68
 8000558:	f000 f962 	bl	8000820 <LCD_IO_WriteData8>
  LCD_IO_WriteCmd8(ILI9488_PASET); LCD_IO_WriteData16_to_2x8(ILI9488_MAX_Y - yEnd); LCD_IO_WriteData16_to_2x8(ILI9488_MAX_Y - yStart);
 800055c:	202b      	movs	r0, #43	@ 0x2b
 800055e:	f000 f93f 	bl	80007e0 <LCD_IO_WriteCmd8>
 8000562:	8838      	ldrh	r0, [r7, #0]
  size = (size - index)/2;
 8000564:	0876      	lsrs	r6, r6, #1
  LCD_IO_WriteCmd8(ILI9488_PASET); LCD_IO_WriteData16_to_2x8(ILI9488_MAX_Y - yEnd); LCD_IO_WriteData16_to_2x8(ILI9488_MAX_Y - yStart);
 8000566:	1a20      	subs	r0, r4, r0
 8000568:	f3c0 2007 	ubfx	r0, r0, #8, #8
 800056c:	f000 f958 	bl	8000820 <LCD_IO_WriteData8>
 8000570:	8838      	ldrh	r0, [r7, #0]
 8000572:	4f1a      	ldr	r7, [pc, #104]	@ (80005dc <ili9488_DrawBitmap+0xac>)
 8000574:	f1c0 003f 	rsb	r0, r0, #63	@ 0x3f
 8000578:	b2c0      	uxtb	r0, r0
 800057a:	f000 f951 	bl	8000820 <LCD_IO_WriteData8>
 800057e:	883b      	ldrh	r3, [r7, #0]
 8000580:	1ae0      	subs	r0, r4, r3
 8000582:	f3c0 2007 	ubfx	r0, r0, #8, #8
 8000586:	f000 f94b 	bl	8000820 <LCD_IO_WriteData8>
 800058a:	8838      	ldrh	r0, [r7, #0]
 800058c:	f1c0 003f 	rsb	r0, r0, #63	@ 0x3f
 8000590:	b2c0      	uxtb	r0, r0
 8000592:	f000 f945 	bl	8000820 <LCD_IO_WriteData8>
  LCD_IO_WriteCmd8(ILI9488_RAMWR);
 8000596:	202c      	movs	r0, #44	@ 0x2c
 8000598:	f000 f922 	bl	80007e0 <LCD_IO_WriteCmd8>
  while(size--)
 800059c:	b1a6      	cbz	r6, 80005c8 <ili9488_DrawBitmap+0x98>
 800059e:	eb05 0646 	add.w	r6, r5, r6, lsl #1
    ili9488_write16to24(*(uint16_t *)pbmp);
 80005a2:	f835 4b02 	ldrh.w	r4, [r5], #2
  LCD_IO_WriteData8((RGBCode & 0xF800) >> 8);
 80005a6:	1220      	asrs	r0, r4, #8
 80005a8:	f000 00f8 	and.w	r0, r0, #248	@ 0xf8
 80005ac:	f000 f938 	bl	8000820 <LCD_IO_WriteData8>
  LCD_IO_WriteData8((RGBCode & 0x07E0) >> 3);
 80005b0:	10e0      	asrs	r0, r4, #3
 80005b2:	f000 00fc 	and.w	r0, r0, #252	@ 0xfc
 80005b6:	f000 f933 	bl	8000820 <LCD_IO_WriteData8>
  LCD_IO_WriteData8((RGBCode & 0x001F) << 3);
 80005ba:	00e0      	lsls	r0, r4, #3
 80005bc:	f000 00f8 	and.w	r0, r0, #248	@ 0xf8
 80005c0:	f000 f92e 	bl	8000820 <LCD_IO_WriteData8>
  while(size--)
 80005c4:	42b5      	cmp	r5, r6
 80005c6:	d1ec      	bne.n	80005a2 <ili9488_DrawBitmap+0x72>
  LCD_IO_WriteCmd8(ILI9488_MADCTL); LCD_IO_WriteData8(ILI9488_MAD_DATA_RIGHT_THEN_DOWN);
 80005c8:	2036      	movs	r0, #54	@ 0x36
 80005ca:	f000 f909 	bl	80007e0 <LCD_IO_WriteCmd8>
}
 80005ce:	e8bd 40f8 	ldmia.w	sp!, {r3, r4, r5, r6, r7, lr}
  LCD_IO_WriteCmd8(ILI9488_MADCTL); LCD_IO_WriteData8(ILI9488_MAD_DATA_RIGHT_THEN_DOWN);
 80005d2:	2028      	movs	r0, #40	@ 0x28
 80005d4:	f000 b924 	b.w	8000820 <LCD_IO_WriteData8>
 80005d8:	20000084 	.word	0x20000084
 80005dc:	20000086 	.word	0x20000086

080005e0 <ili9488_WritePixel>:
{
 80005e0:	b5f8      	push	{r3, r4, r5, r6, r7, lr}
 80005e2:	4606      	mov	r6, r0
 80005e4:	460d      	mov	r5, r1
 80005e6:	4614      	mov	r4, r2
  ILI9488_SETCURSOR(Xpos, Ypos);
 80005e8:	0a37      	lsrs	r7, r6, #8
 80005ea:	202a      	movs	r0, #42	@ 0x2a
 80005ec:	f000 f8f8 	bl	80007e0 <LCD_IO_WriteCmd8>
 80005f0:	b2f6      	uxtb	r6, r6
 80005f2:	4638      	mov	r0, r7
 80005f4:	f000 f914 	bl	8000820 <LCD_IO_WriteData8>
 80005f8:	4630      	mov	r0, r6
 80005fa:	f000 f911 	bl	8000820 <LCD_IO_WriteData8>
 80005fe:	4638      	mov	r0, r7
 8000600:	f000 f90e 	bl	8000820 <LCD_IO_WriteData8>
 8000604:	4630      	mov	r0, r6
 8000606:	f000 f90b 	bl	8000820 <LCD_IO_WriteData8>
 800060a:	0a2e      	lsrs	r6, r5, #8
 800060c:	202b      	movs	r0, #43	@ 0x2b
 800060e:	f000 f8e7 	bl	80007e0 <LCD_IO_WriteCmd8>
 8000612:	b2ed      	uxtb	r5, r5
 8000614:	4630      	mov	r0, r6
 8000616:	f000 f903 	bl	8000820 <LCD_IO_WriteData8>
 800061a:	4628      	mov	r0, r5
 800061c:	f000 f900 	bl	8000820 <LCD_IO_WriteData8>
 8000620:	4630      	mov	r0, r6
 8000622:	f000 f8fd 	bl	8000820 <LCD_IO_WriteData8>
 8000626:	4628      	mov	r0, r5
 8000628:	f000 f8fa 	bl	8000820 <LCD_IO_WriteData8>
  LCD_IO_WriteCmd8(ILI9488_RAMWR);
 800062c:	202c      	movs	r0, #44	@ 0x2c
 800062e:	f000 f8d7 	bl	80007e0 <LCD_IO_WriteCmd8>
  LCD_IO_WriteData8((RGBCode & 0xF800) >> 8);
 8000632:	1220      	asrs	r0, r4, #8
 8000634:	f000 00f8 	and.w	r0, r0, #248	@ 0xf8
 8000638:	f000 f8f2 	bl	8000820 <LCD_IO_WriteData8>
  LCD_IO_WriteData8((RGBCode & 0x07E0) >> 3);
 800063c:	10e0      	asrs	r0, r4, #3
 800063e:	f000 00fc 	and.w	r0, r0, #252	@ 0xfc
 8000642:	f000 f8ed 	bl	8000820 <LCD_IO_WriteData8>
  LCD_IO_WriteData8((RGBCode & 0x001F) << 3);
 8000646:	00e0      	lsls	r0, r4, #3
 8000648:	f000 00f8 	and.w	r0, r0, #248	@ 0xf8
}
 800064c:	e8bd 40f8 	ldmia.w	sp!, {r3, r4, r5, r6, r7, lr}
  LCD_IO_WriteData8((RGBCode & 0x001F) << 3);
 8000650:	f000 b8e6 	b.w	8000820 <LCD_IO_WriteData8>

08000654 <ili9488_DrawHLine>:
{
 8000654:	b5f8      	push	{r3, r4, r5, r6, r7, lr}
 8000656:	461c      	mov	r4, r3
 8000658:	4605      	mov	r5, r0
  ili9488_SetDisplayWindow(Xpos, Ypos, Xsize, Ysize);
 800065a:	2301      	movs	r3, #1
 800065c:	4608      	mov	r0, r1
 800065e:	4611      	mov	r1, r2
 8000660:	4622      	mov	r2, r4
 8000662:	f7ff fe39 	bl	80002d8 <ili9488_SetDisplayWindow>
  LCD_IO_WriteCmd8(ILI9488_RAMWR);
 8000666:	202c      	movs	r0, #44	@ 0x2c
 8000668:	f000 f8ba 	bl	80007e0 <LCD_IO_WriteCmd8>
  while(XYsize--)
 800066c:	b194      	cbz	r4, 8000694 <ili9488_DrawHLine+0x40>
  LCD_IO_WriteData8((RGBCode & 0xF800) >> 8);
 800066e:	122f      	asrs	r7, r5, #8
  LCD_IO_WriteData8((RGBCode & 0x07E0) >> 3);
 8000670:	10ee      	asrs	r6, r5, #3
  LCD_IO_WriteData8((RGBCode & 0x001F) << 3);
 8000672:	00ed      	lsls	r5, r5, #3
  LCD_IO_WriteData8((RGBCode & 0xF800) >> 8);
 8000674:	f007 07f8 	and.w	r7, r7, #248	@ 0xf8
  LCD_IO_WriteData8((RGBCode & 0x07E0) >> 3);
 8000678:	f006 06fc 	and.w	r6, r6, #252	@ 0xfc
  LCD_IO_WriteData8((RGBCode & 0x001F) << 3);
 800067c:	b2ed      	uxtb	r5, r5
  LCD_IO_WriteData8((RGBCode & 0xF800) >> 8);
 800067e:	4638      	mov	r0, r7
 8000680:	f000 f8ce 	bl	8000820 <LCD_IO_WriteData8>
  LCD_IO_WriteData8((RGBCode & 0x07E0) >> 3);
 8000684:	4630      	mov	r0, r6
 8000686:	f000 f8cb 	bl	8000820 <LCD_IO_WriteData8>
  LCD_IO_WriteData8((RGBCode & 0x001F) << 3);
 800068a:	4628      	mov	r0, r5
 800068c:	f000 f8c8 	bl	8000820 <LCD_IO_WriteData8>
  while(XYsize--)
 8000690:	3c01      	subs	r4, #1
 8000692:	d1f4      	bne.n	800067e <ili9488_DrawHLine+0x2a>
}
 8000694:	bdf8      	pop	{r3, r4, r5, r6, r7, pc}
 8000696:	bf00      	nop

08000698 <ili9488_DrawVLine>:
{
 8000698:	b5f8      	push	{r3, r4, r5, r6, r7, lr}
 800069a:	460e      	mov	r6, r1
 800069c:	461c      	mov	r4, r3
 800069e:	4611      	mov	r1, r2
 80006a0:	4605      	mov	r5, r0
  ili9488_SetDisplayWindow(Xpos, Ypos, Xsize, Ysize);
 80006a2:	2201      	movs	r2, #1
 80006a4:	4630      	mov	r0, r6
 80006a6:	f7ff fe17 	bl	80002d8 <ili9488_SetDisplayWindow>
  LCD_IO_WriteCmd8(ILI9488_RAMWR);
 80006aa:	202c      	movs	r0, #44	@ 0x2c
 80006ac:	f000 f898 	bl	80007e0 <LCD_IO_WriteCmd8>
  while(XYsize--)
 80006b0:	b194      	cbz	r4, 80006d8 <ili9488_DrawVLine+0x40>
  LCD_IO_WriteData8((RGBCode & 0xF800) >> 8);
 80006b2:	122f      	asrs	r7, r5, #8
  LCD_IO_WriteData8((RGBCode & 0x07E0) >> 3);
 80006b4:	10ee      	asrs	r6, r5, #3
  LCD_IO_WriteData8((RGBCode & 0x001F) << 3);
 80006b6:	00ed      	lsls	r5, r5, #3
  LCD_IO_WriteData8((RGBCode & 0xF800) >> 8);
 80006b8:	f007 07f8 	and.w	r7, r7, #248	@ 0xf8
  LCD_IO_WriteData8((RGBCode & 0x07E0) >> 3);
 80006bc:	f006 06fc 	and.w	r6, r6, #252	@ 0xfc
  LCD_IO_WriteData8((RGBCode & 0x001F) << 3);
 80006c0:	b2ed      	uxtb	r5, r5
  LCD_IO_WriteData8((RGBCode & 0xF800) >> 8);
 80006c2:	4638      	mov	r0, r7
 80006c4:	f000 f8ac 	bl	8000820 <LCD_IO_WriteData8>
  LCD_IO_WriteData8((RGBCode & 0x07E0) >> 3);
 80006c8:	4630      	mov	r0, r6
 80006ca:	f000 f8a9 	bl	8000820 <LCD_IO_WriteData8>
  LCD_IO_WriteData8((RGBCode & 0x001F) << 3);
 80006ce:	4628      	mov	r0, r5
 80006d0:	f000 f8a6 	bl	8000820 <LCD_IO_WriteData8>
  while(XYsize--)
 80006d4:	3c01      	subs	r4, #1
 80006d6:	d1f4      	bne.n	80006c2 <ili9488_DrawVLine+0x2a>
}
 80006d8:	bdf8      	pop	{r3, r4, r5, r6, r7, pc}
 80006da:	bf00      	nop

080006dc <LCD_IO_Delay>:
#elif   defined(__CC_ARM)
#pragma push
#pragma O0
#endif
void LCD_IO_Delay(uint32_t c)
{
 80006dc:	b480      	push	{r7}
 80006de:	b083      	sub	sp, #12
 80006e0:	af00      	add	r7, sp, #0
 80006e2:	6078      	str	r0, [r7, #4]
  while(c--);
 80006e4:	bf00      	nop
 80006e6:	687b      	ldr	r3, [r7, #4]
 80006e8:	1e5a      	subs	r2, r3, #1
 80006ea:	607a      	str	r2, [r7, #4]
 80006ec:	2b00      	cmp	r3, #0
 80006ee:	d1fa      	bne.n	80006e6 <LCD_IO_Delay+0xa>
}
 80006f0:	bf00      	nop
 80006f2:	bf00      	nop
 80006f4:	370c      	adds	r7, #12
 80006f6:	46bd      	mov	sp, r7
 80006f8:	bc80      	pop	{r7}
 80006fa:	4770      	bx	lr

080006fc <LCD_Delay>:
//=============================================================================
/* Public functions */

void LCD_Delay(uint32_t Delay)
{
  HAL_Delay(Delay);
 80006fc:	f000 bea2 	b.w	8001444 <HAL_Delay>

08000700 <LCD_IO_Bl_OnOff>:

//-----------------------------------------------------------------------------
void LCD_IO_Bl_OnOff(uint8_t Bl)
{
  #if GPIOX_PORTNUM(LCD_BL) >= GPIOX_PORTNUM_A
  if(Bl)
 8000700:	b120      	cbz	r0, 800070c <LCD_IO_Bl_OnOff+0xc>
    GPIOX_ODR(LCD_BL) = LCD_BLON;
 8000702:	2200      	movs	r2, #0
 8000704:	4b04      	ldr	r3, [pc, #16]	@ (8000718 <LCD_IO_Bl_OnOff+0x18>)
 8000706:	f8c3 21b4 	str.w	r2, [r3, #436]	@ 0x1b4
 800070a:	4770      	bx	lr
  else
    GPIOX_ODR(LCD_BL) = 1 - LCD_BLON;
 800070c:	2201      	movs	r2, #1
 800070e:	4b02      	ldr	r3, [pc, #8]	@ (8000718 <LCD_IO_Bl_OnOff+0x18>)
 8000710:	f8c3 21b4 	str.w	r2, [r3, #436]	@ 0x1b4
  #endif
}
 8000714:	4770      	bx	lr
 8000716:	bf00      	nop
 8000718:	42220000 	.word	0x42220000

0800071c <LCD_IO_Init>:

//-----------------------------------------------------------------------------
void LCD_IO_Init(void)
{
 800071c:	b570      	push	{r4, r5, r6, lr}
    GPIOX_ODR(LCD_BL) = LCD_BLON;
 800071e:	2600      	movs	r6, #0
  #endif

  /* Reset pin = output, reset off */
  #if GPIOX_PORTNUM(LCD_RST) >= GPIOX_PORTNUM_A
  GPIOX_MODE(MODE_PP_OUT_2MHZ, LCD_RST);
  LCD_RST_OFF;
 8000720:	2501      	movs	r5, #1
  RCC->APB2ENR |= GPIOX_CLOCK(LCD_RS) | GPIOX_CLOCK(LCD_CS) | GPIOX_CLOCK(LCD_SCK) | GPIOX_CLOCK(LCD_MOSI) |
 8000722:	4929      	ldr	r1, [pc, #164]	@ (80007c8 <LCD_IO_Init+0xac>)
  GPIOX_MODE(MODE_PP_OUT_2MHZ, LCD_BL);
 8000724:	4a29      	ldr	r2, [pc, #164]	@ (80007cc <LCD_IO_Init+0xb0>)
  RCC->APB2ENR |= GPIOX_CLOCK(LCD_RS) | GPIOX_CLOCK(LCD_CS) | GPIOX_CLOCK(LCD_SCK) | GPIOX_CLOCK(LCD_MOSI) |
 8000726:	698b      	ldr	r3, [r1, #24]
    GPIOX_ODR(LCD_BL) = LCD_BLON;
 8000728:	4829      	ldr	r0, [pc, #164]	@ (80007d0 <LCD_IO_Init+0xb4>)
  RCC->APB2ENR |= GPIOX_CLOCK(LCD_RS) | GPIOX_CLOCK(LCD_CS) | GPIOX_CLOCK(LCD_SCK) | GPIOX_CLOCK(LCD_MOSI) |
 800072a:	f043 0318 	orr.w	r3, r3, #24
 800072e:	618b      	str	r3, [r1, #24]
  GPIOX_MODE(MODE_PP_OUT_2MHZ, LCD_BL);
 8000730:	6853      	ldr	r3, [r2, #4]
  #if LCD_SPI_MODE == 1
  /* Half duplex */
  SPIX->CR1 = SPI_CR1_CPHA | SPI_CR1_CPOL | SPI_CR1_MSTR | SPI_CR1_SPE | SPI_CR1_SSM | SPI_CR1_SSI | (LCD_SPI_SPD_WRITE << SPI_CR1_BR_Pos) | SPI_CR1_BIDIMODE | SPI_CR1_BIDIOE;
  #else // #if LCD_SPI_MODE == 1
  /* TX or full duplex */
  SPIX->CR1 = SPI_CR1_CPHA | SPI_CR1_CPOL | SPI_CR1_MSTR | SPI_CR1_SPE | SPI_CR1_SSM | SPI_CR1_SSI | (LCD_SPI_SPD_WRITE << SPI_CR1_BR_Pos);
 8000732:	f240 3147 	movw	r1, #839	@ 0x347
  GPIOX_MODE(MODE_PP_OUT_2MHZ, LCD_BL);
 8000736:	f423 0370 	bic.w	r3, r3, #15728640	@ 0xf00000
 800073a:	f443 1300 	orr.w	r3, r3, #2097152	@ 0x200000
 800073e:	6053      	str	r3, [r2, #4]
  GPIOX_MODE(MODE_PP_OUT_2MHZ, LCD_RST);
 8000740:	4b24      	ldr	r3, [pc, #144]	@ (80007d4 <LCD_IO_Init+0xb8>)
    GPIOX_ODR(LCD_BL) = LCD_BLON;
 8000742:	f8c0 61b4 	str.w	r6, [r0, #436]	@ 0x1b4
  GPIOX_MODE(MODE_PP_OUT_2MHZ, LCD_RST);
 8000746:	685a      	ldr	r2, [r3, #4]
  LCD_RST_OFF;
 8000748:	4c23      	ldr	r4, [pc, #140]	@ (80007d8 <LCD_IO_Init+0xbc>)
  GPIOX_MODE(MODE_PP_OUT_2MHZ, LCD_RST);
 800074a:	f422 4270 	bic.w	r2, r2, #61440	@ 0xf000
 800074e:	f442 5200 	orr.w	r2, r2, #8192	@ 0x2000
 8000752:	605a      	str	r2, [r3, #4]
  LCD_RST_OFF;
 8000754:	f8c4 51ac 	str.w	r5, [r4, #428]	@ 0x1ac
  LCD_RS_DATA;
 8000758:	f8c4 51b8 	str.w	r5, [r4, #440]	@ 0x1b8
  LCD_CS_OFF;
 800075c:	f8c4 51b0 	str.w	r5, [r4, #432]	@ 0x1b0
  GPIOX_MODE(MODE_PP_OUT_50MHZ, LCD_RS);
 8000760:	685a      	ldr	r2, [r3, #4]
  HAL_Delay(Delay);
 8000762:	200a      	movs	r0, #10
  GPIOX_MODE(MODE_PP_OUT_50MHZ, LCD_RS);
 8000764:	f022 6270 	bic.w	r2, r2, #251658240	@ 0xf000000
 8000768:	f042 7240 	orr.w	r2, r2, #50331648	@ 0x3000000
 800076c:	605a      	str	r2, [r3, #4]
  GPIOX_MODE(MODE_PP_OUT_50MHZ, LCD_CS);
 800076e:	685a      	ldr	r2, [r3, #4]
 8000770:	f422 2270 	bic.w	r2, r2, #983040	@ 0xf0000
 8000774:	f442 3240 	orr.w	r2, r2, #196608	@ 0x30000
 8000778:	605a      	str	r2, [r3, #4]
  LCD_SPI_RCC_EN;
 800077a:	4a18      	ldr	r2, [pc, #96]	@ (80007dc <LCD_IO_Init+0xc0>)
  GPIOX_ODR(LCD_SCK) = 1;               // SCK = 1
 800077c:	f8c4 51b4 	str.w	r5, [r4, #436]	@ 0x1b4
  LCD_SPI_RCC_EN;
 8000780:	f8c2 53b8 	str.w	r5, [r2, #952]	@ 0x3b8
  GPIOX_MODE(MODE_PP_ALTER_50MHZ, LCD_SCK);
 8000784:	685a      	ldr	r2, [r3, #4]
 8000786:	f422 0270 	bic.w	r2, r2, #15728640	@ 0xf00000
 800078a:	f442 0230 	orr.w	r2, r2, #11534336	@ 0xb00000
 800078e:	605a      	str	r2, [r3, #4]
  GPIOX_MODE(MODE_PP_ALTER_50MHZ, LCD_MOSI);
 8000790:	685a      	ldr	r2, [r3, #4]
 8000792:	f022 4270 	bic.w	r2, r2, #4026531840	@ 0xf0000000
 8000796:	f042 4230 	orr.w	r2, r2, #2952790016	@ 0xb0000000
 800079a:	605a      	str	r2, [r3, #4]
  SPIX->CR1 = SPI_CR1_CPHA | SPI_CR1_CPOL | SPI_CR1_MSTR | SPI_CR1_SPE | SPI_CR1_SSM | SPI_CR1_SSI | (LCD_SPI_SPD_WRITE << SPI_CR1_BR_Pos);
 800079c:	f5a3 4354 	sub.w	r3, r3, #54272	@ 0xd400
 80007a0:	6019      	str	r1, [r3, #0]

  #endif // #else LCD_SPI_MODE == 1

  SPIX->CR1 |= SPI_CR1_SPE;
 80007a2:	681a      	ldr	r2, [r3, #0]
 80007a4:	f042 0240 	orr.w	r2, r2, #64	@ 0x40
 80007a8:	601a      	str	r2, [r3, #0]
  HAL_Delay(Delay);
 80007aa:	f000 fe4b 	bl	8001444 <HAL_Delay>
 80007ae:	200a      	movs	r0, #10
  #endif // #else LCD_SPI == 0

  /* Reset the LCD */
  #if GPIOX_PORTNUM(LCD_RST) >= GPIOX_PORTNUM_A // reset
  LCD_Delay(10);
  LCD_RST_ON;
 80007b0:	f8c4 61ac 	str.w	r6, [r4, #428]	@ 0x1ac
  HAL_Delay(Delay);
 80007b4:	f000 fe46 	bl	8001444 <HAL_Delay>
  LCD_Delay(10);
  LCD_RST_OFF;
 80007b8:	f8c4 51ac 	str.w	r5, [r4, #428]	@ 0x1ac
  HAL_Delay(Delay);
 80007bc:	200a      	movs	r0, #10
  osSemaphoreDef(spiDmaBinSem);
  spiDmaBinSemHandle = osSemaphoreCreate(osSemaphore(spiDmaBinSem), 1);
  osSemaphoreWait(spiDmaBinSemHandle, 1);
  #endif
  #endif  // #if DMANUM(LCD_DMA_RX) > 0
} // void LCD_IO_Init(void)
 80007be:	e8bd 4070 	ldmia.w	sp!, {r4, r5, r6, lr}
  HAL_Delay(Delay);
 80007c2:	f000 be3f 	b.w	8001444 <HAL_Delay>
 80007c6:	bf00      	nop
 80007c8:	40021000 	.word	0x40021000
 80007cc:	40011000 	.word	0x40011000
 80007d0:	42220000 	.word	0x42220000
 80007d4:	40010c00 	.word	0x40010c00
 80007d8:	42218000 	.word	0x42218000
 80007dc:	42420000 	.word	0x42420000

080007e0 <LCD_IO_WriteCmd8>:

//-----------------------------------------------------------------------------
void LCD_IO_WriteCmd8(uint8_t Cmd)
{
 80007e0:	b538      	push	{r3, r4, r5, lr}
  WaitForDmaEnd();
  LcdSpiMode8();
 80007e2:	2200      	movs	r2, #0
{
 80007e4:	4603      	mov	r3, r0
  LCD_CS_ON;
 80007e6:	490b      	ldr	r1, [pc, #44]	@ (8000814 <LCD_IO_WriteCmd8+0x34>)
  LcdSpiMode8();
 80007e8:	4c0b      	ldr	r4, [pc, #44]	@ (8000818 <LCD_IO_WriteCmd8+0x38>)
  SPIX->DR = cmd8;
 80007ea:	4d0c      	ldr	r5, [pc, #48]	@ (800081c <LCD_IO_WriteCmd8+0x3c>)
  LcdSpiMode8();
 80007ec:	62e2      	str	r2, [r4, #44]	@ 0x2c
  LCD_IO_Delay(2);
 80007ee:	2002      	movs	r0, #2
  LCD_CS_ON;
 80007f0:	f8c1 21b0 	str.w	r2, [r1, #432]	@ 0x1b0
  LCD_RS_CMD;
 80007f4:	f8c1 21b8 	str.w	r2, [r1, #440]	@ 0x1b8
  SPIX->DR = cmd8;
 80007f8:	60eb      	str	r3, [r5, #12]
  LCD_IO_Delay(2);
 80007fa:	f7ff ff6f 	bl	80006dc <LCD_IO_Delay>
  while(BITBAND_ACCESS(SPIX->SR, SPI_SR_BSY_Pos));
 80007fe:	f8d4 311c 	ldr.w	r3, [r4, #284]	@ 0x11c
 8000802:	2b00      	cmp	r3, #0
 8000804:	d1fb      	bne.n	80007fe <LCD_IO_WriteCmd8+0x1e>
  LCD_RS_DATA;
 8000806:	2201      	movs	r2, #1
 8000808:	4b02      	ldr	r3, [pc, #8]	@ (8000814 <LCD_IO_WriteCmd8+0x34>)
 800080a:	f8c3 21b8 	str.w	r2, [r3, #440]	@ 0x1b8
  LcdCmdWrite8(Cmd);
  LCD_CS_OFF;
 800080e:	f8c3 21b0 	str.w	r2, [r3, #432]	@ 0x1b0
}
 8000812:	bd38      	pop	{r3, r4, r5, pc}
 8000814:	42218000 	.word	0x42218000
 8000818:	42070000 	.word	0x42070000
 800081c:	40003800 	.word	0x40003800

08000820 <LCD_IO_WriteData8>:
  LCD_CS_OFF;
}

//-----------------------------------------------------------------------------
void LCD_IO_WriteData8(uint8_t Data)
{
 8000820:	b538      	push	{r3, r4, r5, lr}
  WaitForDmaEnd();
  LcdSpiMode8();
 8000822:	2200      	movs	r2, #0
{
 8000824:	4603      	mov	r3, r0
  LcdSpiMode8();
 8000826:	4c09      	ldr	r4, [pc, #36]	@ (800084c <LCD_IO_WriteData8+0x2c>)
  LCD_CS_ON;
 8000828:	4d09      	ldr	r5, [pc, #36]	@ (8000850 <LCD_IO_WriteData8+0x30>)
  SPIX->DR = d8;
 800082a:	490a      	ldr	r1, [pc, #40]	@ (8000854 <LCD_IO_WriteData8+0x34>)
  LcdSpiMode8();
 800082c:	62e2      	str	r2, [r4, #44]	@ 0x2c
  LCD_IO_Delay(2);
 800082e:	2002      	movs	r0, #2
  LCD_CS_ON;
 8000830:	f8c5 21b0 	str.w	r2, [r5, #432]	@ 0x1b0
  SPIX->DR = d8;
 8000834:	60cb      	str	r3, [r1, #12]
  LCD_IO_Delay(2);
 8000836:	f7ff ff51 	bl	80006dc <LCD_IO_Delay>
  while(BITBAND_ACCESS(SPIX->SR, SPI_SR_BSY_Pos));
 800083a:	f8d4 311c 	ldr.w	r3, [r4, #284]	@ 0x11c
 800083e:	2b00      	cmp	r3, #0
 8000840:	d1fb      	bne.n	800083a <LCD_IO_WriteData8+0x1a>
  LcdWrite8(Data);
  LCD_CS_OFF;
 8000842:	2201      	movs	r2, #1
 8000844:	4b02      	ldr	r3, [pc, #8]	@ (8000850 <LCD_IO_WriteData8+0x30>)
 8000846:	f8c3 21b0 	str.w	r2, [r3, #432]	@ 0x1b0
}
 800084a:	bd38      	pop	{r3, r4, r5, pc}
 800084c:	42070000 	.word	0x42070000
 8000850:	42218000 	.word	0x42218000
 8000854:	40003800 	.word	0x40003800

08000858 <LCD_IO_WriteCmd8DataFill16>:
  LCD_CS_OFF;
}

//-----------------------------------------------------------------------------
void LCD_IO_WriteCmd8DataFill16(uint8_t Cmd, uint16_t Data, uint32_t Size)
{
 8000858:	e92d 4178 	stmdb	sp!, {r3, r4, r5, r6, r8, lr}
  WaitForDmaEnd();
  LcdSpiMode8();
 800085c:	2500      	movs	r5, #0
{
 800085e:	4603      	mov	r3, r0
  LCD_CS_ON;
 8000860:	4e18      	ldr	r6, [pc, #96]	@ (80008c4 <LCD_IO_WriteCmd8DataFill16+0x6c>)
  LcdSpiMode8();
 8000862:	4c19      	ldr	r4, [pc, #100]	@ (80008c8 <LCD_IO_WriteCmd8DataFill16+0x70>)
  SPIX->DR = cmd8;
 8000864:	f8df c064 	ldr.w	ip, [pc, #100]	@ 80008cc <LCD_IO_WriteCmd8DataFill16+0x74>
  LcdSpiMode8();
 8000868:	62e5      	str	r5, [r4, #44]	@ 0x2c
  LCD_IO_Delay(2);
 800086a:	2002      	movs	r0, #2
  LCD_CS_ON;
 800086c:	f8c6 51b0 	str.w	r5, [r6, #432]	@ 0x1b0
  LCD_RS_CMD;
 8000870:	f8c6 51b8 	str.w	r5, [r6, #440]	@ 0x1b8
  SPIX->DR = cmd8;
 8000874:	f8cc 300c 	str.w	r3, [ip, #12]
{
 8000878:	460e      	mov	r6, r1
 800087a:	4690      	mov	r8, r2
  LCD_IO_Delay(2);
 800087c:	f7ff ff2e 	bl	80006dc <LCD_IO_Delay>
  while(BITBAND_ACCESS(SPIX->SR, SPI_SR_BSY_Pos));
 8000880:	f8d4 311c 	ldr.w	r3, [r4, #284]	@ 0x11c
 8000884:	2b00      	cmp	r3, #0
 8000886:	d1fb      	bne.n	8000880 <LCD_IO_WriteCmd8DataFill16+0x28>
  LCD_RS_DATA;
 8000888:	2301      	movs	r3, #1
 800088a:	4a0e      	ldr	r2, [pc, #56]	@ (80008c4 <LCD_IO_WriteCmd8DataFill16+0x6c>)
  while(Size--)
 800088c:	f108 35ff 	add.w	r5, r8, #4294967295
  LCD_RS_DATA;
 8000890:	f8c2 31b8 	str.w	r3, [r2, #440]	@ 0x1b8
  LcdCmdWrite8(Cmd);
  LcdSpiMode16();
 8000894:	62e3      	str	r3, [r4, #44]	@ 0x2c
  while(Size--)
 8000896:	f1b8 0f00 	cmp.w	r8, #0
 800089a:	d00d      	beq.n	80008b8 <LCD_IO_WriteCmd8DataFill16+0x60>
  SPIX->DR = d16;
 800089c:	f8df 802c 	ldr.w	r8, [pc, #44]	@ 80008cc <LCD_IO_WriteCmd8DataFill16+0x74>
  while(BITBAND_ACCESS(SPIX->SR, SPI_SR_BSY_Pos));
 80008a0:	4c09      	ldr	r4, [pc, #36]	@ (80008c8 <LCD_IO_WriteCmd8DataFill16+0x70>)
  LCD_IO_Delay(1);
 80008a2:	2001      	movs	r0, #1
  SPIX->DR = d16;
 80008a4:	f8c8 600c 	str.w	r6, [r8, #12]
  LCD_IO_Delay(1);
 80008a8:	f7ff ff18 	bl	80006dc <LCD_IO_Delay>
  while(BITBAND_ACCESS(SPIX->SR, SPI_SR_BSY_Pos));
 80008ac:	f8d4 311c 	ldr.w	r3, [r4, #284]	@ 0x11c
 80008b0:	2b00      	cmp	r3, #0
 80008b2:	d1fb      	bne.n	80008ac <LCD_IO_WriteCmd8DataFill16+0x54>
  while(Size--)
 80008b4:	3d01      	subs	r5, #1
 80008b6:	d2f4      	bcs.n	80008a2 <LCD_IO_WriteCmd8DataFill16+0x4a>
  LCD_CS_OFF;
 80008b8:	2201      	movs	r2, #1
 80008ba:	4b02      	ldr	r3, [pc, #8]	@ (80008c4 <LCD_IO_WriteCmd8DataFill16+0x6c>)
 80008bc:	f8c3 21b0 	str.w	r2, [r3, #432]	@ 0x1b0
  LCD_IO_WriteMultiData16(&Data, Size, 0);
}
 80008c0:	e8bd 8178 	ldmia.w	sp!, {r3, r4, r5, r6, r8, pc}
 80008c4:	42218000 	.word	0x42218000
 80008c8:	42070000 	.word	0x42070000
 80008cc:	40003800 	.word	0x40003800

080008d0 <LCD_IO_WriteCmd8MultipleData8>:

//-----------------------------------------------------------------------------
void LCD_IO_WriteCmd8MultipleData8(uint8_t Cmd, uint8_t *pData, uint32_t Size)
{
 80008d0:	e92d 4178 	stmdb	sp!, {r3, r4, r5, r6, r8, lr}
  WaitForDmaEnd();
  LcdSpiMode8();
 80008d4:	2500      	movs	r5, #0
{
 80008d6:	4603      	mov	r3, r0
  LCD_CS_ON;
 80008d8:	f8df c060 	ldr.w	ip, [pc, #96]	@ 800093c <LCD_IO_WriteCmd8MultipleData8+0x6c>
{
 80008dc:	460e      	mov	r6, r1
  LcdSpiMode8();
 80008de:	4c18      	ldr	r4, [pc, #96]	@ (8000940 <LCD_IO_WriteCmd8MultipleData8+0x70>)
  SPIX->DR = cmd8;
 80008e0:	4918      	ldr	r1, [pc, #96]	@ (8000944 <LCD_IO_WriteCmd8MultipleData8+0x74>)
  LcdSpiMode8();
 80008e2:	62e5      	str	r5, [r4, #44]	@ 0x2c
  LCD_IO_Delay(2);
 80008e4:	2002      	movs	r0, #2
  LCD_CS_ON;
 80008e6:	f8cc 51b0 	str.w	r5, [ip, #432]	@ 0x1b0
  LCD_RS_CMD;
 80008ea:	f8cc 51b8 	str.w	r5, [ip, #440]	@ 0x1b8
  SPIX->DR = cmd8;
 80008ee:	60cb      	str	r3, [r1, #12]
{
 80008f0:	4615      	mov	r5, r2
  LCD_IO_Delay(2);
 80008f2:	f7ff fef3 	bl	80006dc <LCD_IO_Delay>
  while(BITBAND_ACCESS(SPIX->SR, SPI_SR_BSY_Pos));
 80008f6:	f8d4 311c 	ldr.w	r3, [r4, #284]	@ 0x11c
 80008fa:	2b00      	cmp	r3, #0
 80008fc:	d1fb      	bne.n	80008f6 <LCD_IO_WriteCmd8MultipleData8+0x26>
  LCD_RS_DATA;
 80008fe:	2201      	movs	r2, #1
 8000900:	4b0e      	ldr	r3, [pc, #56]	@ (800093c <LCD_IO_WriteCmd8MultipleData8+0x6c>)
  while(Size--)
 8000902:	1e69      	subs	r1, r5, #1
  LCD_RS_DATA;
 8000904:	f8c3 21b8 	str.w	r2, [r3, #440]	@ 0x1b8
  while(Size--)
 8000908:	b18d      	cbz	r5, 800092e <LCD_IO_WriteCmd8MultipleData8+0x5e>
  SPIX->DR = d8;
 800090a:	f8df 8038 	ldr.w	r8, [pc, #56]	@ 8000944 <LCD_IO_WriteCmd8MultipleData8+0x74>
  while(BITBAND_ACCESS(SPIX->SR, SPI_SR_BSY_Pos));
 800090e:	4c0c      	ldr	r4, [pc, #48]	@ (8000940 <LCD_IO_WriteCmd8MultipleData8+0x70>)
 8000910:	1e75      	subs	r5, r6, #1
 8000912:	440e      	add	r6, r1
  SPIX->DR = d8;
 8000914:	f815 3f01 	ldrb.w	r3, [r5, #1]!
  LCD_IO_Delay(2);
 8000918:	2002      	movs	r0, #2
  SPIX->DR = d8;
 800091a:	f8c8 300c 	str.w	r3, [r8, #12]
  LCD_IO_Delay(2);
 800091e:	f7ff fedd 	bl	80006dc <LCD_IO_Delay>
  while(BITBAND_ACCESS(SPIX->SR, SPI_SR_BSY_Pos));
 8000922:	f8d4 311c 	ldr.w	r3, [r4, #284]	@ 0x11c
 8000926:	2b00      	cmp	r3, #0
 8000928:	d1fb      	bne.n	8000922 <LCD_IO_WriteCmd8MultipleData8+0x52>
  while(Size--)
 800092a:	42b5      	cmp	r5, r6
 800092c:	d1f2      	bne.n	8000914 <LCD_IO_WriteCmd8MultipleData8+0x44>
  LCD_CS_OFF;
 800092e:	2201      	movs	r2, #1
 8000930:	4b02      	ldr	r3, [pc, #8]	@ (800093c <LCD_IO_WriteCmd8MultipleData8+0x6c>)
 8000932:	f8c3 21b0 	str.w	r2, [r3, #432]	@ 0x1b0
  LcdCmdWrite8(Cmd);
  LCD_IO_WriteMultiData8(pData, Size, 1);
}
 8000936:	e8bd 8178 	ldmia.w	sp!, {r3, r4, r5, r6, r8, pc}
 800093a:	bf00      	nop
 800093c:	42218000 	.word	0x42218000
 8000940:	42070000 	.word	0x42070000
 8000944:	40003800 	.word	0x40003800

08000948 <LCD_IO_WriteCmd8MultipleData16>:

//-----------------------------------------------------------------------------
void LCD_IO_WriteCmd8MultipleData16(uint8_t Cmd, uint16_t *pData, uint32_t Size)
{
 8000948:	e92d 4178 	stmdb	sp!, {r3, r4, r5, r6, r8, lr}
  WaitForDmaEnd();
  LcdSpiMode8();
 800094c:	2500      	movs	r5, #0
{
 800094e:	4603      	mov	r3, r0
  LCD_CS_ON;
 8000950:	f8df c064 	ldr.w	ip, [pc, #100]	@ 80009b8 <LCD_IO_WriteCmd8MultipleData16+0x70>
{
 8000954:	460e      	mov	r6, r1
  LcdSpiMode8();
 8000956:	4c19      	ldr	r4, [pc, #100]	@ (80009bc <LCD_IO_WriteCmd8MultipleData16+0x74>)
  SPIX->DR = cmd8;
 8000958:	4919      	ldr	r1, [pc, #100]	@ (80009c0 <LCD_IO_WriteCmd8MultipleData16+0x78>)
  LcdSpiMode8();
 800095a:	62e5      	str	r5, [r4, #44]	@ 0x2c
  LCD_IO_Delay(2);
 800095c:	2002      	movs	r0, #2
  LCD_CS_ON;
 800095e:	f8cc 51b0 	str.w	r5, [ip, #432]	@ 0x1b0
  LCD_RS_CMD;
 8000962:	f8cc 51b8 	str.w	r5, [ip, #440]	@ 0x1b8
  SPIX->DR = cmd8;
 8000966:	60cb      	str	r3, [r1, #12]
{
 8000968:	4690      	mov	r8, r2
  LCD_IO_Delay(2);
 800096a:	f7ff feb7 	bl	80006dc <LCD_IO_Delay>
  while(BITBAND_ACCESS(SPIX->SR, SPI_SR_BSY_Pos));
 800096e:	f8d4 311c 	ldr.w	r3, [r4, #284]	@ 0x11c
 8000972:	2b00      	cmp	r3, #0
 8000974:	d1fb      	bne.n	800096e <LCD_IO_WriteCmd8MultipleData16+0x26>
  LCD_RS_DATA;
 8000976:	2301      	movs	r3, #1
 8000978:	4a0f      	ldr	r2, [pc, #60]	@ (80009b8 <LCD_IO_WriteCmd8MultipleData16+0x70>)
  while(Size--)
 800097a:	f108 35ff 	add.w	r5, r8, #4294967295
  LCD_RS_DATA;
 800097e:	f8c2 31b8 	str.w	r3, [r2, #440]	@ 0x1b8
  LcdCmdWrite8(Cmd);
  LcdSpiMode16();
 8000982:	62e3      	str	r3, [r4, #44]	@ 0x2c
  while(Size--)
 8000984:	f1b8 0f00 	cmp.w	r8, #0
 8000988:	d010      	beq.n	80009ac <LCD_IO_WriteCmd8MultipleData16+0x64>
  SPIX->DR = d16;
 800098a:	f8df 8034 	ldr.w	r8, [pc, #52]	@ 80009c0 <LCD_IO_WriteCmd8MultipleData16+0x78>
  while(BITBAND_ACCESS(SPIX->SR, SPI_SR_BSY_Pos));
 800098e:	4c0b      	ldr	r4, [pc, #44]	@ (80009bc <LCD_IO_WriteCmd8MultipleData16+0x74>)
 8000990:	3e02      	subs	r6, #2
  SPIX->DR = d16;
 8000992:	f836 3f02 	ldrh.w	r3, [r6, #2]!
  LCD_IO_Delay(1);
 8000996:	2001      	movs	r0, #1
  SPIX->DR = d16;
 8000998:	f8c8 300c 	str.w	r3, [r8, #12]
  LCD_IO_Delay(1);
 800099c:	f7ff fe9e 	bl	80006dc <LCD_IO_Delay>
  while(BITBAND_ACCESS(SPIX->SR, SPI_SR_BSY_Pos));
 80009a0:	f8d4 311c 	ldr.w	r3, [r4, #284]	@ 0x11c
 80009a4:	2b00      	cmp	r3, #0
 80009a6:	d1fb      	bne.n	80009a0 <LCD_IO_WriteCmd8MultipleData16+0x58>
  while(Size--)
 80009a8:	3d01      	subs	r5, #1
 80009aa:	d2f2      	bcs.n	8000992 <LCD_IO_WriteCmd8MultipleData16+0x4a>
  LCD_CS_OFF;
 80009ac:	2201      	movs	r2, #1
 80009ae:	4b02      	ldr	r3, [pc, #8]	@ (80009b8 <LCD_IO_WriteCmd8MultipleData16+0x70>)
 80009b0:	f8c3 21b0 	str.w	r2, [r3, #432]	@ 0x1b0
  LCD_IO_WriteMultiData16(pData, Size, 1);
}
 80009b4:	e8bd 8178 	ldmia.w	sp!, {r3, r4, r5, r6, r8, pc}
 80009b8:	42218000 	.word	0x42218000
 80009bc:	42070000 	.word	0x42070000
 80009c0:	40003800 	.word	0x40003800

080009c4 <LCD_IO_ReadCmd8MultipleData8>:
  LcdCmdWrite16(Cmd);
  LCD_IO_WriteMultiData16(pData, Size, 1);
}

#if LCD_SPI_MODE == 0
__weak void LCD_IO_ReadCmd8MultipleData8(uint8_t Cmd, uint8_t *pData, uint32_t Size, uint32_t DummySize) {}
 80009c4:	4770      	bx	lr
 80009c6:	bf00      	nop

080009c8 <LCD_IO_ReadCmd8MultipleData24to16>:
__weak void LCD_IO_ReadCmd8MultipleData16(uint8_t Cmd, uint16_t *pData, uint32_t Size, uint32_t DummySize) {}
__weak void LCD_IO_ReadCmd8MultipleData24to16(uint8_t Cmd, uint16_t *pData, uint32_t Size, uint32_t DummySize) {}
 80009c8:	4770      	bx	lr
 80009ca:	bf00      	nop

080009cc <BSP_LCD_SetTextColor>:
  * @param  Color: Text color code RGB(5-6-5)
  * @retval None
  */
void BSP_LCD_SetTextColor(uint16_t Color)
{
  DrawProp.TextColor = Color;
 80009cc:	4b01      	ldr	r3, [pc, #4]	@ (80009d4 <BSP_LCD_SetTextColor+0x8>)
 80009ce:	6018      	str	r0, [r3, #0]
}
 80009d0:	4770      	bx	lr
 80009d2:	bf00      	nop
 80009d4:	20001450 	.word	0x20001450

080009d8 <BSP_LCD_SetFont>:
  * @param  fonts: Font to be used
  * @retval None
  */
void BSP_LCD_SetFont(sFONT *pFonts)
{
  DrawProp.pFont = pFonts;
 80009d8:	4b01      	ldr	r3, [pc, #4]	@ (80009e0 <BSP_LCD_SetFont+0x8>)
 80009da:	6098      	str	r0, [r3, #8]
}
 80009dc:	4770      	bx	lr
 80009de:	bf00      	nop
 80009e0:	20001450 	.word	0x20001450

080009e4 <BSP_LCD_DrawBitmap>:
  * @param  Ypos: Bmp Y position in the LCD
  * @param  pBmp: Pointer to Bmp picture address
  * @retval None
  */
void BSP_LCD_DrawBitmap(uint16_t Xpos, uint16_t Ypos, uint8_t *pBmp)
{
 80009e4:	e92d 41f0 	stmdb	sp!, {r4, r5, r6, r7, r8, lr}
  * @param  Height: LCD window height  
  * @retval None
  */
static void SetDisplayWindow(uint16_t Xpos, uint16_t Ypos, uint16_t Width, uint16_t Height)
{
  if(lcd_drv->SetDisplayWindow != NULL)
 80009e8:	4c14      	ldr	r4, [pc, #80]	@ (8000a3c <BSP_LCD_DrawBitmap+0x58>)
{
 80009ea:	4607      	mov	r7, r0
  if(lcd_drv->SetDisplayWindow != NULL)
 80009ec:	6823      	ldr	r3, [r4, #0]
{
 80009ee:	4688      	mov	r8, r1
  if(lcd_drv->SetDisplayWindow != NULL)
 80009f0:	69de      	ldr	r6, [r3, #28]
{
 80009f2:	4615      	mov	r5, r2
  if(lcd_drv->SetDisplayWindow != NULL)
 80009f4:	b13e      	cbz	r6, 8000a06 <BSP_LCD_DrawBitmap+0x22>
  SetDisplayWindow(Xpos, Ypos, width, height);
 80009f6:	f8d2 3016 	ldr.w	r3, [r2, #22]
 80009fa:	f8d2 2012 	ldr.w	r2, [r2, #18]
  {
    lcd_drv->SetDisplayWindow(Xpos, Ypos, Width, Height);
 80009fe:	b29b      	uxth	r3, r3
 8000a00:	b292      	uxth	r2, r2
 8000a02:	47b0      	blx	r6
  if(lcd_drv->DrawBitmap != NULL)
 8000a04:	6823      	ldr	r3, [r4, #0]
 8000a06:	6b1e      	ldr	r6, [r3, #48]	@ 0x30
 8000a08:	b126      	cbz	r6, 8000a14 <BSP_LCD_DrawBitmap+0x30>
    lcd_drv->DrawBitmap(Xpos, Ypos, pBmp);
 8000a0a:	462a      	mov	r2, r5
 8000a0c:	4641      	mov	r1, r8
 8000a0e:	4638      	mov	r0, r7
 8000a10:	47b0      	blx	r6
  return(lcd_drv->GetLcdPixelWidth());
 8000a12:	6823      	ldr	r3, [r4, #0]
 8000a14:	6a9b      	ldr	r3, [r3, #40]	@ 0x28
 8000a16:	4798      	blx	r3
  return(lcd_drv->GetLcdPixelHeight());
 8000a18:	6823      	ldr	r3, [r4, #0]
  return(lcd_drv->GetLcdPixelWidth());
 8000a1a:	4605      	mov	r5, r0
  return(lcd_drv->GetLcdPixelHeight());
 8000a1c:	6adb      	ldr	r3, [r3, #44]	@ 0x2c
 8000a1e:	4798      	blx	r3
  if(lcd_drv->SetDisplayWindow != NULL)
 8000a20:	6822      	ldr	r2, [r4, #0]
  return(lcd_drv->GetLcdPixelHeight());
 8000a22:	4603      	mov	r3, r0
  if(lcd_drv->SetDisplayWindow != NULL)
 8000a24:	69d4      	ldr	r4, [r2, #28]
 8000a26:	b134      	cbz	r4, 8000a36 <BSP_LCD_DrawBitmap+0x52>
    lcd_drv->SetDisplayWindow(Xpos, Ypos, Width, Height);
 8000a28:	2100      	movs	r1, #0
 8000a2a:	462a      	mov	r2, r5
 8000a2c:	46a4      	mov	ip, r4
}
 8000a2e:	e8bd 41f0 	ldmia.w	sp!, {r4, r5, r6, r7, r8, lr}
    lcd_drv->SetDisplayWindow(Xpos, Ypos, Width, Height);
 8000a32:	4608      	mov	r0, r1
 8000a34:	4760      	bx	ip
}
 8000a36:	e8bd 81f0 	ldmia.w	sp!, {r4, r5, r6, r7, r8, pc}
 8000a3a:	bf00      	nop
 8000a3c:	20000008 	.word	0x20000008

08000a40 <BSP_LCD_DisplayChar>:
{
 8000a40:	e92d 4ff0 	stmdb	sp!, {r4, r5, r6, r7, r8, r9, sl, fp, lr}
  *(uint16_t *) (bitmap + 10) = OFFSET_BITMAP;
 8000a44:	f04f 0c36 	mov.w	ip, #54	@ 0x36
  *(uint16_t *) (bitmap + 20) = (uint16_t)((width)>>16);
 8000a48:	f04f 0800 	mov.w	r8, #0
  DrawChar(Xpos, Ypos, &DrawProp.pFont->table[(Ascii-' ') *\
 8000a4c:	f8df e120 	ldr.w	lr, [pc, #288]	@ 8000b70 <BSP_LCD_DisplayChar+0x130>
 8000a50:	3a20      	subs	r2, #32
 8000a52:	f8de 3008 	ldr.w	r3, [lr, #8]
  *(uint16_t *) (bitmap + 2) = (uint16_t)(height*width*2+OFFSET_BITMAP);
 8000a56:	4f47      	ldr	r7, [pc, #284]	@ (8000b74 <BSP_LCD_DisplayChar+0x134>)
    DrawProp.pFont->Height * ((DrawProp.pFont->Width + 7) / 8)]);
 8000a58:	889c      	ldrh	r4, [r3, #4]
 8000a5a:	f8b3 a006 	ldrh.w	sl, [r3, #6]
  DrawChar(Xpos, Ypos, &DrawProp.pFont->table[(Ascii-' ') *\
 8000a5e:	681e      	ldr	r6, [r3, #0]
  *(uint16_t *) (bitmap + 2) = (uint16_t)(height*width*2+OFFSET_BITMAP);
 8000a60:	fb04 f30a 	mul.w	r3, r4, sl
  DrawChar(Xpos, Ypos, &DrawProp.pFont->table[(Ascii-' ') *\
 8000a64:	fb0a f502 	mul.w	r5, sl, r2
  *(uint16_t *) (bitmap + 2) = (uint16_t)(height*width*2+OFFSET_BITMAP);
 8000a68:	331b      	adds	r3, #27
 8000a6a:	005b      	lsls	r3, r3, #1
    DrawProp.pFont->Height * ((DrawProp.pFont->Width + 7) / 8)]);
 8000a6c:	f104 0b07 	add.w	fp, r4, #7
{
 8000a70:	b089      	sub	sp, #36	@ 0x24
    DrawProp.pFont->Height * ((DrawProp.pFont->Width + 7) / 8)]);
 8000a72:	ea4f 0beb 	mov.w	fp, fp, asr #3
  *(uint16_t *) (bitmap + 2) = (uint16_t)(height*width*2+OFFSET_BITMAP);
 8000a76:	807b      	strh	r3, [r7, #2]
  *(uint16_t *) (bitmap + 4) = (uint16_t)((height*width*2+OFFSET_BITMAP)>>16);
 8000a78:	141b      	asrs	r3, r3, #16
  *(uint16_t *) (bitmap + 10) = OFFSET_BITMAP;
 8000a7a:	f8a7 c00a 	strh.w	ip, [r7, #10]
{
 8000a7e:	4602      	mov	r2, r0
    DrawProp.pFont->Height * ((DrawProp.pFont->Width + 7) / 8)]);
 8000a80:	fb0b f505 	mul.w	r5, fp, r5
  *(uint16_t *) (bitmap + 4) = (uint16_t)((height*width*2+OFFSET_BITMAP)>>16);
 8000a84:	80bb      	strh	r3, [r7, #4]
  *(uint16_t *) (bitmap + 18) = (uint16_t)(width);
 8000a86:	827c      	strh	r4, [r7, #18]
  *(uint16_t *) (bitmap + 20) = (uint16_t)((width)>>16);
 8000a88:	f8a7 8014 	strh.w	r8, [r7, #20]
  *(uint16_t *) (bitmap + 22) = (uint16_t)(height);
 8000a8c:	f8a7 a016 	strh.w	sl, [r7, #22]
  *(uint16_t *) (bitmap + 24) = (uint16_t)((height)>>16);
 8000a90:	f8a7 8018 	strh.w	r8, [r7, #24]
  offset =  8 *((width + 7)/8) - width ;
 8000a94:	ebc4 0ccb 	rsb	ip, r4, fp, lsl #3
  for(counterh = 0; counterh < height; counterh++)
 8000a98:	f1ba 0f00 	cmp.w	sl, #0
 8000a9c:	d044      	beq.n	8000b28 <BSP_LCD_DisplayChar+0xe8>
  uint32_t line = 0;
 8000a9e:	4640      	mov	r0, r8
 8000aa0:	442e      	add	r6, r5
        bitmap[index] = (uint8_t)DrawProp.TextColor;
 8000aa2:	f8de 5000 	ldr.w	r5, [lr]
      if(line & (1 << (width- counterw + offset- 1))) 
 8000aa6:	f04f 0e01 	mov.w	lr, #1
  for(counterh = 0; counterh < height; counterh++)
 8000aaa:	4681      	mov	r9, r0
 8000aac:	ebc4 73c4 	rsb	r3, r4, r4, lsl #31
 8000ab0:	fa03 f30e 	lsl.w	r3, r3, lr
 8000ab4:	9301      	str	r3, [sp, #4]
 8000ab6:	f8dd 8004 	ldr.w	r8, [sp, #4]
 8000aba:	ebae 030a 	sub.w	r3, lr, sl
 8000abe:	fb03 7808 	mla	r8, r3, r8, r7
 8000ac2:	fa5f fc8c 	uxtb.w	ip, ip
    if(((width + 7)/8) == 1)
 8000ac6:	1e63      	subs	r3, r4, #1
 8000ac8:	9307      	str	r3, [sp, #28]
 8000aca:	449c      	add	ip, r3
    if(((width + 7)/8) == 4)
 8000acc:	f1a4 0319 	sub.w	r3, r4, #25
 8000ad0:	9302      	str	r3, [sp, #8]
  for(counterh = 0; counterh < height; counterh++)
 8000ad2:	e9cd 2105 	strd	r2, r1, [sp, #20]
    if(((width + 7)/8) == 3)
 8000ad6:	f1a4 0311 	sub.w	r3, r4, #17
 8000ada:	9303      	str	r3, [sp, #12]
    if(((width + 7)/8) == 2)
 8000adc:	f1a4 0309 	sub.w	r3, r4, #9
        bitmap[index] = (uint8_t)DrawProp.TextColor;
 8000ae0:	b2ef      	uxtb	r7, r5
    if(((width + 7)/8) == 2)
 8000ae2:	9304      	str	r3, [sp, #16]
        bitmap[index+1] = (uint8_t)(DrawProp.TextColor >> 8);
 8000ae4:	f3c5 2507 	ubfx	r5, r5, #8, #8
    if(((width + 7)/8) == 4)
 8000ae8:	9b02      	ldr	r3, [sp, #8]
 8000aea:	2b07      	cmp	r3, #7
 8000aec:	d829      	bhi.n	8000b42 <BSP_LCD_DisplayChar+0x102>
      line =  (pchar[0]<< 24) | (pchar[1]<< 16) | pchar[2]<< 8| pchar[3];
 8000aee:	6830      	ldr	r0, [r6, #0]
 8000af0:	ba00      	rev	r0, r0
      if(line & (1 << (width- counterw + offset- 1))) 
 8000af2:	4641      	mov	r1, r8
    for (counterw = 0; counterw < width; counterw++)
 8000af4:	2300      	movs	r3, #0
      if(line & (1 << (width- counterw + offset- 1))) 
 8000af6:	ebac 0203 	sub.w	r2, ip, r3
 8000afa:	fa0e f202 	lsl.w	r2, lr, r2
 8000afe:	4202      	tst	r2, r0
    for (counterw = 0; counterw < width; counterw++)
 8000b00:	f103 0301 	add.w	r3, r3, #1
        bitmap[index] = (uint8_t)DrawProp.TextColor;
 8000b04:	bf1c      	itt	ne
 8000b06:	f881 7036 	strbne.w	r7, [r1, #54]	@ 0x36
        bitmap[index+1] = (uint8_t)(DrawProp.TextColor >> 8);
 8000b0a:	f881 5037 	strbne.w	r5, [r1, #55]	@ 0x37
    for (counterw = 0; counterw < width; counterw++)
 8000b0e:	429c      	cmp	r4, r3
 8000b10:	f101 0102 	add.w	r1, r1, #2
 8000b14:	d8ef      	bhi.n	8000af6 <BSP_LCD_DisplayChar+0xb6>
  for(counterh = 0; counterh < height; counterh++)
 8000b16:	9b01      	ldr	r3, [sp, #4]
 8000b18:	f109 0901 	add.w	r9, r9, #1
 8000b1c:	45ca      	cmp	sl, r9
 8000b1e:	445e      	add	r6, fp
 8000b20:	4498      	add	r8, r3
 8000b22:	d1e1      	bne.n	8000ae8 <BSP_LCD_DisplayChar+0xa8>
 8000b24:	e9dd 2105 	ldrd	r2, r1, [sp, #20]
  BSP_LCD_DrawBitmap(Xpos, Ypos, bitmap);
 8000b28:	4610      	mov	r0, r2
 8000b2a:	4a12      	ldr	r2, [pc, #72]	@ (8000b74 <BSP_LCD_DisplayChar+0x134>)
}
 8000b2c:	b009      	add	sp, #36	@ 0x24
 8000b2e:	e8bd 4ff0 	ldmia.w	sp!, {r4, r5, r6, r7, r8, r9, sl, fp, lr}
  BSP_LCD_DrawBitmap(Xpos, Ypos, bitmap);
 8000b32:	f7ff bf57 	b.w	80009e4 <BSP_LCD_DrawBitmap>
    for (counterw = 0; counterw < width; counterw++)
 8000b36:	2c00      	cmp	r4, #0
 8000b38:	d1db      	bne.n	8000af2 <BSP_LCD_DisplayChar+0xb2>
  for(counterh = 0; counterh < height; counterh++)
 8000b3a:	f109 0901 	add.w	r9, r9, #1
 8000b3e:	45ca      	cmp	sl, r9
 8000b40:	d0f0      	beq.n	8000b24 <BSP_LCD_DisplayChar+0xe4>
    if(((width + 7)/8) == 3)
 8000b42:	9b03      	ldr	r3, [sp, #12]
 8000b44:	2b07      	cmp	r3, #7
 8000b46:	d807      	bhi.n	8000b58 <BSP_LCD_DisplayChar+0x118>
      line =  (pchar[0]<< 16) | (pchar[1]<< 8) | pchar[2];
 8000b48:	7870      	ldrb	r0, [r6, #1]
 8000b4a:	7833      	ldrb	r3, [r6, #0]
 8000b4c:	0200      	lsls	r0, r0, #8
 8000b4e:	ea40 4003 	orr.w	r0, r0, r3, lsl #16
 8000b52:	78b3      	ldrb	r3, [r6, #2]
 8000b54:	4318      	orrs	r0, r3
    for (counterw = 0; counterw < width; counterw++)
 8000b56:	e7cc      	b.n	8000af2 <BSP_LCD_DisplayChar+0xb2>
    if(((width + 7)/8) == 2)
 8000b58:	9b04      	ldr	r3, [sp, #16]
 8000b5a:	2b07      	cmp	r3, #7
 8000b5c:	d803      	bhi.n	8000b66 <BSP_LCD_DisplayChar+0x126>
      line =  (pchar[0]<< 8) | pchar[1];
 8000b5e:	8830      	ldrh	r0, [r6, #0]
 8000b60:	ba40      	rev16	r0, r0
 8000b62:	b280      	uxth	r0, r0
    for (counterw = 0; counterw < width; counterw++)
 8000b64:	e7c5      	b.n	8000af2 <BSP_LCD_DisplayChar+0xb2>
    if(((width + 7)/8) == 1)
 8000b66:	9b07      	ldr	r3, [sp, #28]
 8000b68:	2b07      	cmp	r3, #7
 8000b6a:	d8e4      	bhi.n	8000b36 <BSP_LCD_DisplayChar+0xf6>
      line =  pchar[0];
 8000b6c:	7830      	ldrb	r0, [r6, #0]
    for (counterw = 0; counterw < width; counterw++)
 8000b6e:	e7c0      	b.n	8000af2 <BSP_LCD_DisplayChar+0xb2>
 8000b70:	20001450 	.word	0x20001450
 8000b74:	2000008c 	.word	0x2000008c

08000b78 <BSP_LCD_DisplayStringAt>:
{
 8000b78:	e92d 47f0 	stmdb	sp!, {r4, r5, r6, r7, r8, r9, sl, lr}
 8000b7c:	4607      	mov	r7, r0
  while (*ptr++) size ++ ;
 8000b7e:	4610      	mov	r0, r2
 8000b80:	f810 4b01 	ldrb.w	r4, [r0], #1
{
 8000b84:	4616      	mov	r6, r2
 8000b86:	4688      	mov	r8, r1
 8000b88:	461d      	mov	r5, r3
  while (*ptr++) size ++ ;
 8000b8a:	b114      	cbz	r4, 8000b92 <BSP_LCD_DisplayStringAt+0x1a>
 8000b8c:	f7ff fade 	bl	800014c <strlen>
 8000b90:	1c44      	adds	r4, r0, #1
  return(lcd_drv->GetLcdPixelWidth());
 8000b92:	f8df 9084 	ldr.w	r9, [pc, #132]	@ 8000c18 <BSP_LCD_DisplayStringAt+0xa0>
  xsize = (BSP_LCD_GetXSize()/DrawProp.pFont->Width);
 8000b96:	f8df a084 	ldr.w	sl, [pc, #132]	@ 8000c1c <BSP_LCD_DisplayStringAt+0xa4>
  return(lcd_drv->GetLcdPixelWidth());
 8000b9a:	f8d9 3000 	ldr.w	r3, [r9]
 8000b9e:	6a9b      	ldr	r3, [r3, #40]	@ 0x28
 8000ba0:	4798      	blx	r3
  xsize = (BSP_LCD_GetXSize()/DrawProp.pFont->Width);
 8000ba2:	f8da 3008 	ldr.w	r3, [sl, #8]
  switch (Mode)
 8000ba6:	2d01      	cmp	r5, #1
  xsize = (BSP_LCD_GetXSize()/DrawProp.pFont->Width);
 8000ba8:	889b      	ldrh	r3, [r3, #4]
 8000baa:	fbb0 f0f3 	udiv	r0, r0, r3
 8000bae:	b280      	uxth	r0, r0
  switch (Mode)
 8000bb0:	d02b      	beq.n	8000c0a <BSP_LCD_DisplayStringAt+0x92>
 8000bb2:	2d02      	cmp	r5, #2
 8000bb4:	d023      	beq.n	8000bfe <BSP_LCD_DisplayStringAt+0x86>
  uint32_t size = 0, xsize = 0; 
 8000bb6:	2400      	movs	r4, #0
 8000bb8:	3e01      	subs	r6, #1
 8000bba:	e00b      	b.n	8000bd4 <BSP_LCD_DisplayStringAt+0x5c>
    BSP_LCD_DisplayChar(refcolumn, Ypos, *Text);
 8000bbc:	4638      	mov	r0, r7
 8000bbe:	4641      	mov	r1, r8
 8000bc0:	7832      	ldrb	r2, [r6, #0]
 8000bc2:	f7ff ff3d 	bl	8000a40 <BSP_LCD_DisplayChar>
    refcolumn += DrawProp.pFont->Width;
 8000bc6:	f8da 3008 	ldr.w	r3, [sl, #8]
    i++;
 8000bca:	3401      	adds	r4, #1
    refcolumn += DrawProp.pFont->Width;
 8000bcc:	889b      	ldrh	r3, [r3, #4]
    i++;
 8000bce:	b2a4      	uxth	r4, r4
    refcolumn += DrawProp.pFont->Width;
 8000bd0:	443b      	add	r3, r7
 8000bd2:	b29f      	uxth	r7, r3
  return(lcd_drv->GetLcdPixelWidth());
 8000bd4:	f8d9 3000 	ldr.w	r3, [r9]
  while ((*Text != 0) & (((BSP_LCD_GetXSize() - (i*DrawProp.pFont->Width)) & 0xFFFF) >= DrawProp.pFont->Width))
 8000bd8:	f816 5f01 	ldrb.w	r5, [r6, #1]!
  return(lcd_drv->GetLcdPixelWidth());
 8000bdc:	6a9b      	ldr	r3, [r3, #40]	@ 0x28
  while ((*Text != 0) & (((BSP_LCD_GetXSize() - (i*DrawProp.pFont->Width)) & 0xFFFF) >= DrawProp.pFont->Width))
 8000bde:	3d00      	subs	r5, #0
 8000be0:	bf18      	it	ne
 8000be2:	2501      	movne	r5, #1
  return(lcd_drv->GetLcdPixelWidth());
 8000be4:	4798      	blx	r3
  while ((*Text != 0) & (((BSP_LCD_GetXSize() - (i*DrawProp.pFont->Width)) & 0xFFFF) >= DrawProp.pFont->Width))
 8000be6:	f8da 3008 	ldr.w	r3, [sl, #8]
 8000bea:	889a      	ldrh	r2, [r3, #4]
 8000bec:	fb02 0314 	mls	r3, r2, r4, r0
 8000bf0:	b29b      	uxth	r3, r3
 8000bf2:	429a      	cmp	r2, r3
 8000bf4:	dc01      	bgt.n	8000bfa <BSP_LCD_DisplayStringAt+0x82>
 8000bf6:	2d00      	cmp	r5, #0
 8000bf8:	d1e0      	bne.n	8000bbc <BSP_LCD_DisplayStringAt+0x44>
}
 8000bfa:	e8bd 87f0 	ldmia.w	sp!, {r4, r5, r6, r7, r8, r9, sl, pc}
      refcolumn =  - Xpos + ((xsize - size)*DrawProp.pFont->Width);
 8000bfe:	1b00      	subs	r0, r0, r4
 8000c00:	fb00 f303 	mul.w	r3, r0, r3
 8000c04:	1bdb      	subs	r3, r3, r7
 8000c06:	b29f      	uxth	r7, r3
      break;
 8000c08:	e7d5      	b.n	8000bb6 <BSP_LCD_DisplayStringAt+0x3e>
      refcolumn = Xpos + ((xsize - size)* DrawProp.pFont->Width) / 2;
 8000c0a:	1b00      	subs	r0, r0, r4
 8000c0c:	fb00 f303 	mul.w	r3, r0, r3
 8000c10:	eb07 0353 	add.w	r3, r7, r3, lsr #1
 8000c14:	b29f      	uxth	r7, r3
      break;
 8000c16:	e7ce      	b.n	8000bb6 <BSP_LCD_DisplayStringAt+0x3e>
 8000c18:	20000008 	.word	0x20000008
 8000c1c:	20001450 	.word	0x20001450

08000c20 <MX_GPIO_Init>:
        * Output
        * EVENT_OUT
        * EXTI
*/
void MX_GPIO_Init(void)
{
 8000c20:	e92d 41f0 	stmdb	sp!, {r4, r5, r6, r7, r8, lr}

  GPIO_InitTypeDef GPIO_InitStruct = {0};
 8000c24:	2400      	movs	r4, #0
  __HAL_RCC_GPIOB_CLK_ENABLE();

  /*Configure GPIO pins : PA0 PA1 PA2 PA3
                           PA4 PA5 PA6 PA7
                           PA8 PA9 PA10 PA11 */
  GPIO_InitStruct.Pin = GPIO_PIN_0|GPIO_PIN_1|GPIO_PIN_2|GPIO_PIN_3
 8000c26:	f640 76ff 	movw	r6, #4095	@ 0xfff
                          |GPIO_PIN_4|GPIO_PIN_5|GPIO_PIN_6|GPIO_PIN_7
                          |GPIO_PIN_8|GPIO_PIN_9|GPIO_PIN_10|GPIO_PIN_11;
  GPIO_InitStruct.Mode = GPIO_MODE_IT_RISING_FALLING;
  GPIO_InitStruct.Pull = GPIO_PULLUP;
 8000c2a:	2501      	movs	r5, #1
{
 8000c2c:	b088      	sub	sp, #32
  __HAL_RCC_GPIOD_CLK_ENABLE();
 8000c2e:	4b36      	ldr	r3, [pc, #216]	@ (8000d08 <MX_GPIO_Init+0xe8>)
  GPIO_InitTypeDef GPIO_InitStruct = {0};
 8000c30:	9407      	str	r4, [sp, #28]
  __HAL_RCC_GPIOD_CLK_ENABLE();
 8000c32:	699a      	ldr	r2, [r3, #24]
  HAL_GPIO_Init(GPIOA, &GPIO_InitStruct);
 8000c34:	f8df 80d4 	ldr.w	r8, [pc, #212]	@ 8000d0c <MX_GPIO_Init+0xec>
  __HAL_RCC_GPIOD_CLK_ENABLE();
 8000c38:	f042 0220 	orr.w	r2, r2, #32
 8000c3c:	619a      	str	r2, [r3, #24]
 8000c3e:	699a      	ldr	r2, [r3, #24]
  GPIO_InitStruct.Pin = GPIO_PIN_0|GPIO_PIN_1|GPIO_PIN_2|GPIO_PIN_3
 8000c40:	4f33      	ldr	r7, [pc, #204]	@ (8000d10 <MX_GPIO_Init+0xf0>)
  __HAL_RCC_GPIOD_CLK_ENABLE();
 8000c42:	f002 0220 	and.w	r2, r2, #32
 8000c46:	9201      	str	r2, [sp, #4]
 8000c48:	9a01      	ldr	r2, [sp, #4]
  __HAL_RCC_GPIOA_CLK_ENABLE();
 8000c4a:	699a      	ldr	r2, [r3, #24]
  HAL_GPIO_Init(GPIOA, &GPIO_InitStruct);
 8000c4c:	4640      	mov	r0, r8
  __HAL_RCC_GPIOA_CLK_ENABLE();
 8000c4e:	f042 0204 	orr.w	r2, r2, #4
 8000c52:	619a      	str	r2, [r3, #24]
 8000c54:	699a      	ldr	r2, [r3, #24]
  HAL_GPIO_Init(GPIOA, &GPIO_InitStruct);
 8000c56:	a904      	add	r1, sp, #16
  __HAL_RCC_GPIOA_CLK_ENABLE();
 8000c58:	f002 0204 	and.w	r2, r2, #4
 8000c5c:	9202      	str	r2, [sp, #8]
 8000c5e:	9a02      	ldr	r2, [sp, #8]
  __HAL_RCC_GPIOB_CLK_ENABLE();
 8000c60:	699a      	ldr	r2, [r3, #24]
 8000c62:	f042 0208 	orr.w	r2, r2, #8
 8000c66:	619a      	str	r2, [r3, #24]
 8000c68:	699b      	ldr	r3, [r3, #24]
  GPIO_InitStruct.Pin = GPIO_PIN_0|GPIO_PIN_1|GPIO_PIN_2|GPIO_PIN_3
 8000c6a:	e9cd 6704 	strd	r6, r7, [sp, #16]
  __HAL_RCC_GPIOB_CLK_ENABLE();
 8000c6e:	f003 0308 	and.w	r3, r3, #8
 8000c72:	9303      	str	r3, [sp, #12]
 8000c74:	9b03      	ldr	r3, [sp, #12]
  GPIO_InitStruct.Pull = GPIO_PULLUP;
 8000c76:	9506      	str	r5, [sp, #24]
  HAL_GPIO_Init(GPIOA, &GPIO_InitStruct);
 8000c78:	f000 fc6a 	bl	8001550 <HAL_GPIO_Init>

  /*Configure GPIO pins : PA12 PA15 */
  GPIO_InitStruct.Pin = GPIO_PIN_12|GPIO_PIN_15;
 8000c7c:	f44f 4210 	mov.w	r2, #36864	@ 0x9000
 8000c80:	4b24      	ldr	r3, [pc, #144]	@ (8000d14 <MX_GPIO_Init+0xf4>)
  GPIO_InitStruct.Mode = GPIO_MODE_IT_RISING;
  GPIO_InitStruct.Pull = GPIO_NOPULL;
  HAL_GPIO_Init(GPIOA, &GPIO_InitStruct);
 8000c82:	4640      	mov	r0, r8
 8000c84:	a904      	add	r1, sp, #16
  GPIO_InitStruct.Pin = GPIO_PIN_12|GPIO_PIN_15;
 8000c86:	e9cd 2304 	strd	r2, r3, [sp, #16]
  GPIO_InitStruct.Pull = GPIO_NOPULL;
 8000c8a:	9406      	str	r4, [sp, #24]
  HAL_GPIO_Init(GPIOA, &GPIO_InitStruct);
 8000c8c:	f000 fc60 	bl	8001550 <HAL_GPIO_Init>

  /* EXTI interrupt init*/
  HAL_NVIC_SetPriority(EXTI0_IRQn, 0, 0);
 8000c90:	4622      	mov	r2, r4
 8000c92:	4621      	mov	r1, r4
 8000c94:	2006      	movs	r0, #6
 8000c96:	f000 fbf9 	bl	800148c <HAL_NVIC_SetPriority>
  HAL_NVIC_EnableIRQ(EXTI0_IRQn);
 8000c9a:	2006      	movs	r0, #6
 8000c9c:	f000 fc32 	bl	8001504 <HAL_NVIC_EnableIRQ>

  HAL_NVIC_SetPriority(EXTI1_IRQn, 0, 0);
 8000ca0:	4622      	mov	r2, r4
 8000ca2:	4621      	mov	r1, r4
 8000ca4:	2007      	movs	r0, #7
 8000ca6:	f000 fbf1 	bl	800148c <HAL_NVIC_SetPriority>
  HAL_NVIC_EnableIRQ(EXTI1_IRQn);
 8000caa:	2007      	movs	r0, #7
 8000cac:	f000 fc2a 	bl	8001504 <HAL_NVIC_EnableIRQ>

  HAL_NVIC_SetPriority(EXTI2_IRQn, 0, 0);
 8000cb0:	4622      	mov	r2, r4
 8000cb2:	4621      	mov	r1, r4
 8000cb4:	2008      	movs	r0, #8
 8000cb6:	f000 fbe9 	bl	800148c <HAL_NVIC_SetPriority>
  HAL_NVIC_EnableIRQ(EXTI2_IRQn);
 8000cba:	2008      	movs	r0, #8
 8000cbc:	f000 fc22 	bl	8001504 <HAL_NVIC_EnableIRQ>

  HAL_NVIC_SetPriority(EXTI3_IRQn, 0, 0);
 8000cc0:	4622      	mov	r2, r4
 8000cc2:	4621      	mov	r1, r4
 8000cc4:	2009      	movs	r0, #9
 8000cc6:	f000 fbe1 	bl	800148c <HAL_NVIC_SetPriority>
  HAL_NVIC_EnableIRQ(EXTI3_IRQn);
 8000cca:	2009      	movs	r0, #9
 8000ccc:	f000 fc1a 	bl	8001504 <HAL_NVIC_EnableIRQ>

  HAL_NVIC_SetPriority(EXTI4_IRQn, 0, 0);
 8000cd0:	4622      	mov	r2, r4
 8000cd2:	4621      	mov	r1, r4
 8000cd4:	200a      	movs	r0, #10
 8000cd6:	f000 fbd9 	bl	800148c <HAL_NVIC_SetPriority>
  HAL_NVIC_EnableIRQ(EXTI4_IRQn);
 8000cda:	200a      	movs	r0, #10
 8000cdc:	f000 fc12 	bl	8001504 <HAL_NVIC_EnableIRQ>

  HAL_NVIC_SetPriority(EXTI9_5_IRQn, 0, 0);
 8000ce0:	4622      	mov	r2, r4
 8000ce2:	4621      	mov	r1, r4
 8000ce4:	2017      	movs	r0, #23
 8000ce6:	f000 fbd1 	bl	800148c <HAL_NVIC_SetPriority>
  HAL_NVIC_EnableIRQ(EXTI9_5_IRQn);
 8000cea:	2017      	movs	r0, #23
 8000cec:	f000 fc0a 	bl	8001504 <HAL_NVIC_EnableIRQ>

  HAL_NVIC_SetPriority(EXTI15_10_IRQn, 0, 0);
 8000cf0:	4622      	mov	r2, r4
 8000cf2:	4621      	mov	r1, r4
 8000cf4:	2028      	movs	r0, #40	@ 0x28
 8000cf6:	f000 fbc9 	bl	800148c <HAL_NVIC_SetPriority>
  HAL_NVIC_EnableIRQ(EXTI15_10_IRQn);
 8000cfa:	2028      	movs	r0, #40	@ 0x28
 8000cfc:	f000 fc02 	bl	8001504 <HAL_NVIC_EnableIRQ>

}
 8000d00:	b008      	add	sp, #32
 8000d02:	e8bd 81f0 	ldmia.w	sp!, {r4, r5, r6, r7, r8, pc}
 8000d06:	bf00      	nop
 8000d08:	40021000 	.word	0x40021000
 8000d0c:	40010800 	.word	0x40010800
 8000d10:	10310000 	.word	0x10310000
 8000d14:	10110000 	.word	0x10110000

08000d18 <SystemClock_Config>:
  * @brief System Clock Configuration
  * @retval None
  */
void SystemClock_Config(void)
{
  RCC_OscInitTypeDef RCC_OscInitStruct = {0};
 8000d18:	2300      	movs	r3, #0
  * in the RCC_OscInitTypeDef structure.
  */
  RCC_OscInitStruct.OscillatorType = RCC_OSCILLATORTYPE_HSE;
  RCC_OscInitStruct.HSEState = RCC_HSE_ON;
  RCC_OscInitStruct.HSEPredivValue = RCC_HSE_PREDIV_DIV1;
  RCC_OscInitStruct.HSIState = RCC_HSI_ON;
 8000d1a:	2201      	movs	r2, #1
{
 8000d1c:	b530      	push	{r4, r5, lr}
  RCC_OscInitStruct.OscillatorType = RCC_OSCILLATORTYPE_HSE;
 8000d1e:	2001      	movs	r0, #1
{
 8000d20:	b091      	sub	sp, #68	@ 0x44
  RCC_OscInitStruct.OscillatorType = RCC_OSCILLATORTYPE_HSE;
 8000d22:	f44f 3180 	mov.w	r1, #65536	@ 0x10000
  RCC_OscInitStruct.PLL.PLLState = RCC_PLL_ON;
 8000d26:	2402      	movs	r4, #2
  RCC_OscInitTypeDef RCC_OscInitStruct = {0};
 8000d28:	e9cd 330b 	strd	r3, r3, [sp, #44]	@ 0x2c
  RCC_ClkInitTypeDef RCC_ClkInitStruct = {0};
 8000d2c:	e9cd 3302 	strd	r3, r3, [sp, #8]
 8000d30:	e9cd 3304 	strd	r3, r3, [sp, #16]
  RCC_OscInitTypeDef RCC_OscInitStruct = {0};
 8000d34:	9308      	str	r3, [sp, #32]
  RCC_ClkInitTypeDef RCC_ClkInitStruct = {0};
 8000d36:	9301      	str	r3, [sp, #4]
  RCC_OscInitStruct.HSIState = RCC_HSI_ON;
 8000d38:	920a      	str	r2, [sp, #40]	@ 0x28
  RCC_OscInitTypeDef RCC_OscInitStruct = {0};
 8000d3a:	9309      	str	r3, [sp, #36]	@ 0x24
  RCC_OscInitStruct.PLL.PLLState = RCC_PLL_ON;
 8000d3c:	f44f 3280 	mov.w	r2, #65536	@ 0x10000
  RCC_OscInitStruct.PLL.PLLSource = RCC_PLLSOURCE_HSE;
  RCC_OscInitStruct.PLL.PLLMUL = RCC_PLL_MUL9;
 8000d40:	f44f 13e0 	mov.w	r3, #1835008	@ 0x1c0000
  RCC_OscInitStruct.OscillatorType = RCC_OSCILLATORTYPE_HSE;
 8000d44:	e9cd 0106 	strd	r0, r1, [sp, #24]
  if (HAL_RCC_OscConfig(&RCC_OscInitStruct) != HAL_OK)
 8000d48:	a806      	add	r0, sp, #24
  RCC_OscInitStruct.PLL.PLLMUL = RCC_PLL_MUL9;
 8000d4a:	e9cd 230e 	strd	r2, r3, [sp, #56]	@ 0x38
  RCC_OscInitStruct.PLL.PLLState = RCC_PLL_ON;
 8000d4e:	940d      	str	r4, [sp, #52]	@ 0x34
  if (HAL_RCC_OscConfig(&RCC_OscInitStruct) != HAL_OK)
 8000d50:	f000 fe12 	bl	8001978 <HAL_RCC_OscConfig>
 8000d54:	b108      	cbz	r0, 8000d5a <SystemClock_Config+0x42>
  \details Disables IRQ interrupts by setting the I-bit in the CPSR.
           Can only be executed in Privileged modes.
 */
__STATIC_FORCEINLINE void __disable_irq(void)
{
  __ASM volatile ("cpsid i" : : : "memory");
 8000d56:	b672      	cpsid	i
void Error_Handler(void)
{
  /* USER CODE BEGIN Error_Handler_Debug */
  /* User can add his own implementation to report the HAL error return state */
  __disable_irq();
  while (1)
 8000d58:	e7fe      	b.n	8000d58 <SystemClock_Config+0x40>
  RCC_ClkInitStruct.ClockType = RCC_CLOCKTYPE_HCLK|RCC_CLOCKTYPE_SYSCLK
 8000d5a:	4603      	mov	r3, r0
 8000d5c:	250f      	movs	r5, #15
  RCC_ClkInitStruct.APB1CLKDivider = RCC_HCLK_DIV2;
 8000d5e:	f44f 6280 	mov.w	r2, #1024	@ 0x400
  if (HAL_RCC_ClockConfig(&RCC_ClkInitStruct, FLASH_LATENCY_2) != HAL_OK)
 8000d62:	4621      	mov	r1, r4
 8000d64:	a801      	add	r0, sp, #4
  RCC_ClkInitStruct.SYSCLKSource = RCC_SYSCLKSOURCE_PLLCLK;
 8000d66:	9402      	str	r4, [sp, #8]
  RCC_ClkInitStruct.AHBCLKDivider = RCC_SYSCLK_DIV1;
 8000d68:	9303      	str	r3, [sp, #12]
  RCC_ClkInitStruct.APB2CLKDivider = RCC_HCLK_DIV1;
 8000d6a:	9305      	str	r3, [sp, #20]
  RCC_ClkInitStruct.ClockType = RCC_CLOCKTYPE_HCLK|RCC_CLOCKTYPE_SYSCLK
 8000d6c:	9501      	str	r5, [sp, #4]
  RCC_ClkInitStruct.APB1CLKDivider = RCC_HCLK_DIV2;
 8000d6e:	9204      	str	r2, [sp, #16]
  if (HAL_RCC_ClockConfig(&RCC_ClkInitStruct, FLASH_LATENCY_2) != HAL_OK)
 8000d70:	f000 fff0 	bl	8001d54 <HAL_RCC_ClockConfig>
 8000d74:	b108      	cbz	r0, 8000d7a <SystemClock_Config+0x62>
 8000d76:	b672      	cpsid	i
  while (1)
 8000d78:	e7fe      	b.n	8000d78 <SystemClock_Config+0x60>
}
 8000d7a:	b011      	add	sp, #68	@ 0x44
 8000d7c:	bd30      	pop	{r4, r5, pc}
 8000d7e:	bf00      	nop

08000d80 <main>:
{
 8000d80:	b500      	push	{lr}
 8000d82:	b083      	sub	sp, #12
  HAL_Init();
 8000d84:	f000 fb3a 	bl	80013fc <HAL_Init>
  SystemClock_Config();
 8000d88:	f7ff ffc6 	bl	8000d18 <SystemClock_Config>
  MX_GPIO_Init();
 8000d8c:	f7ff ff48 	bl	8000c20 <MX_GPIO_Init>
  MX_TIM4_Init();
 8000d90:	f000 fa6e 	bl	8001270 <MX_TIM4_Init>
  HAL_TIM_PWM_Start(&htim4, TIM_CHANNEL_4);
 8000d94:	210c      	movs	r1, #12
 8000d96:	4811      	ldr	r0, [pc, #68]	@ (8000ddc <main+0x5c>)
 8000d98:	f001 f90c 	bl	8001fb4 <HAL_TIM_PWM_Start>
  ili9488_Init();
 8000d9c:	f7ff f9e6 	bl	800016c <ili9488_Init>
	ili9488_FillRect(20, 20, 440, 280, LCD_COLOR_YELLOW);
 8000da0:	2114      	movs	r1, #20
 8000da2:	f64f 70e0 	movw	r0, #65504	@ 0xffe0
 8000da6:	f44f 738c 	mov.w	r3, #280	@ 0x118
 8000daa:	f44f 72dc 	mov.w	r2, #440	@ 0x1b8
 8000dae:	9000      	str	r0, [sp, #0]
 8000db0:	4608      	mov	r0, r1
 8000db2:	f7ff fb7d 	bl	80004b0 <ili9488_FillRect>
	 HAL_Delay(500);
 8000db6:	f44f 70fa 	mov.w	r0, #500	@ 0x1f4
 8000dba:	f000 fb43 	bl	8001444 <HAL_Delay>
	 BSP_LCD_SetFont(&Font_MY_BG);
 8000dbe:	4808      	ldr	r0, [pc, #32]	@ (8000de0 <main+0x60>)
 8000dc0:	f7ff fe0a 	bl	80009d8 <BSP_LCD_SetFont>
	 BSP_LCD_SetTextColor(LCD_COLOR_RED);
 8000dc4:	f44f 4078 	mov.w	r0, #63488	@ 0xf800
 8000dc8:	f7ff fe00 	bl	80009cc <BSP_LCD_SetTextColor>
	 BSP_LCD_DisplayStringAt(10, 50, (uint8_t*)" ", CENTER_MODE);
 8000dcc:	2301      	movs	r3, #1
 8000dce:	2132      	movs	r1, #50	@ 0x32
 8000dd0:	200a      	movs	r0, #10
 8000dd2:	4a04      	ldr	r2, [pc, #16]	@ (8000de4 <main+0x64>)
 8000dd4:	f7ff fed0 	bl	8000b78 <BSP_LCD_DisplayStringAt>
	while (1) {
 8000dd8:	e7fe      	b.n	8000dd8 <main+0x58>
 8000dda:	bf00      	nop
 8000ddc:	2000145c 	.word	0x2000145c
 8000de0:	20000000 	.word	0x20000000
 8000de4:	08002540 	.word	0x08002540

08000de8 <button_debounced>:
}
 8000de8:	4770      	bx	lr
 8000dea:	bf00      	nop

08000dec <Error_Handler>:
 8000dec:	b672      	cpsid	i
  while (1)
 8000dee:	e7fe      	b.n	8000dee <Error_Handler+0x2>

08000df0 <HAL_MspInit>:

  /* USER CODE BEGIN MspInit 0 */

  /* USER CODE END MspInit 0 */

  __HAL_RCC_AFIO_CLK_ENABLE();
 8000df0:	4b0e      	ldr	r3, [pc, #56]	@ (8000e2c <HAL_MspInit+0x3c>)
{
 8000df2:	b082      	sub	sp, #8
  __HAL_RCC_AFIO_CLK_ENABLE();
 8000df4:	699a      	ldr	r2, [r3, #24]

  /* System interrupt init*/

  /** NOJTAG: JTAG-DP Disabled and SW-DP Enabled
  */
  __HAL_AFIO_REMAP_SWJ_NOJTAG();
 8000df6:	490e      	ldr	r1, [pc, #56]	@ (8000e30 <HAL_MspInit+0x40>)
  __HAL_RCC_AFIO_CLK_ENABLE();
 8000df8:	f042 0201 	orr.w	r2, r2, #1
 8000dfc:	619a      	str	r2, [r3, #24]
 8000dfe:	699a      	ldr	r2, [r3, #24]
 8000e00:	f002 0201 	and.w	r2, r2, #1
 8000e04:	9200      	str	r2, [sp, #0]
 8000e06:	9a00      	ldr	r2, [sp, #0]
  __HAL_RCC_PWR_CLK_ENABLE();
 8000e08:	69da      	ldr	r2, [r3, #28]
 8000e0a:	f042 5280 	orr.w	r2, r2, #268435456	@ 0x10000000
 8000e0e:	61da      	str	r2, [r3, #28]
 8000e10:	69db      	ldr	r3, [r3, #28]
 8000e12:	f003 5380 	and.w	r3, r3, #268435456	@ 0x10000000
 8000e16:	9301      	str	r3, [sp, #4]
 8000e18:	9b01      	ldr	r3, [sp, #4]
  __HAL_AFIO_REMAP_SWJ_NOJTAG();
 8000e1a:	684b      	ldr	r3, [r1, #4]
 8000e1c:	f023 63e0 	bic.w	r3, r3, #117440512	@ 0x7000000
 8000e20:	f043 7300 	orr.w	r3, r3, #33554432	@ 0x2000000
 8000e24:	604b      	str	r3, [r1, #4]

  /* USER CODE BEGIN MspInit 1 */

  /* USER CODE END MspInit 1 */
}
 8000e26:	b002      	add	sp, #8
 8000e28:	4770      	bx	lr
 8000e2a:	bf00      	nop
 8000e2c:	40021000 	.word	0x40021000
 8000e30:	40010000 	.word	0x40010000

08000e34 <NMI_Handler>:
{
  /* USER CODE BEGIN NonMaskableInt_IRQn 0 */

  /* USER CODE END NonMaskableInt_IRQn 0 */
  /* USER CODE BEGIN NonMaskableInt_IRQn 1 */
   while (1)
 8000e34:	e7fe      	b.n	8000e34 <NMI_Handler>
 8000e36:	bf00      	nop

08000e38 <HardFault_Handler>:
void HardFault_Handler(void)
{
  /* USER CODE BEGIN HardFault_IRQn 0 */

  /* USER CODE END HardFault_IRQn 0 */
  while (1)
 8000e38:	e7fe      	b.n	8000e38 <HardFault_Handler>
 8000e3a:	bf00      	nop

08000e3c <MemManage_Handler>:
void MemManage_Handler(void)
{
  /* USER CODE BEGIN MemoryManagement_IRQn 0 */

  /* USER CODE END MemoryManagement_IRQn 0 */
  while (1)
 8000e3c:	e7fe      	b.n	8000e3c <MemManage_Handler>
 8000e3e:	bf00      	nop

08000e40 <BusFault_Handler>:
void BusFault_Handler(void)
{
  /* USER CODE BEGIN BusFault_IRQn 0 */

  /* USER CODE END BusFault_IRQn 0 */
  while (1)
 8000e40:	e7fe      	b.n	8000e40 <BusFault_Handler>
 8000e42:	bf00      	nop

08000e44 <UsageFault_Handler>:
void UsageFault_Handler(void)
{
  /* USER CODE BEGIN UsageFault_IRQn 0 */

  /* USER CODE END UsageFault_IRQn 0 */
  while (1)
 8000e44:	e7fe      	b.n	8000e44 <UsageFault_Handler>
 8000e46:	bf00      	nop

08000e48 <SVC_Handler>:

  /* USER CODE END SVCall_IRQn 0 */
  /* USER CODE BEGIN SVCall_IRQn 1 */

  /* USER CODE END SVCall_IRQn 1 */
}
 8000e48:	4770      	bx	lr
 8000e4a:	bf00      	nop

08000e4c <DebugMon_Handler>:

/**
  * @brief This function handles Debug monitor.
  */
void DebugMon_Handler(void)
 8000e4c:	4770      	bx	lr
 8000e4e:	bf00      	nop

08000e50 <PendSV_Handler>:
}

/**
  * @brief This function handles Pendable request for system service.
  */
void PendSV_Handler(void)
 8000e50:	4770      	bx	lr
 8000e52:	bf00      	nop

08000e54 <SysTick_Handler>:
void SysTick_Handler(void)
{
  /* USER CODE BEGIN SysTick_IRQn 0 */

  /* USER CODE END SysTick_IRQn 0 */
  HAL_IncTick();
 8000e54:	f000 bae4 	b.w	8001420 <HAL_IncTick>

08000e58 <EXTI0_IRQHandler>:

/**
  * @brief This function handles EXTI line0 interrupt.
  */
void EXTI0_IRQHandler(void)
{
 8000e58:	b508      	push	{r3, lr}
  /* USER CODE BEGIN EXTI0_IRQn 0 */

	button_debounced(cnt);
 8000e5a:	4b0c      	ldr	r3, [pc, #48]	@ (8000e8c <EXTI0_IRQHandler+0x34>)
 8000e5c:	8818      	ldrh	r0, [r3, #0]
 8000e5e:	f7ff ffc3 	bl	8000de8 <button_debounced>
			if(!(GPIOA->IDR & GPIO_IDR_IDR0)) {
 8000e62:	4b0b      	ldr	r3, [pc, #44]	@ (8000e90 <EXTI0_IRQHandler+0x38>)
 8000e64:	689b      	ldr	r3, [r3, #8]
 8000e66:	07da      	lsls	r2, r3, #31
 8000e68:	d403      	bmi.n	8000e72 <EXTI0_IRQHandler+0x1a>
			    __HAL_TIM_SET_COMPARE(&htim4, TIM_CHANNEL_4, 50);
 8000e6a:	2232      	movs	r2, #50	@ 0x32
 8000e6c:	4b09      	ldr	r3, [pc, #36]	@ (8000e94 <EXTI0_IRQHandler+0x3c>)
 8000e6e:	681b      	ldr	r3, [r3, #0]
 8000e70:	641a      	str	r2, [r3, #64]	@ 0x40

			}

			if((GPIOA->IDR & GPIO_IDR_IDR0)) {
 8000e72:	4b07      	ldr	r3, [pc, #28]	@ (8000e90 <EXTI0_IRQHandler+0x38>)
 8000e74:	689b      	ldr	r3, [r3, #8]
 8000e76:	07db      	lsls	r3, r3, #31
 8000e78:	d503      	bpl.n	8000e82 <EXTI0_IRQHandler+0x2a>
		        __HAL_TIM_SET_COMPARE(&htim4, TIM_CHANNEL_4, 0);
 8000e7a:	2200      	movs	r2, #0
 8000e7c:	4b05      	ldr	r3, [pc, #20]	@ (8000e94 <EXTI0_IRQHandler+0x3c>)
 8000e7e:	681b      	ldr	r3, [r3, #0]
 8000e80:	641a      	str	r2, [r3, #64]	@ 0x40

			}

  /* USER CODE END EXTI0_IRQn 0 */
  HAL_GPIO_EXTI_IRQHandler(GPIO_PIN_0);
 8000e82:	2001      	movs	r0, #1
  /* USER CODE BEGIN EXTI0_IRQn 1 */

  /* USER CODE END EXTI0_IRQn 1 */
}
 8000e84:	e8bd 4008 	ldmia.w	sp!, {r3, lr}
  HAL_GPIO_EXTI_IRQHandler(GPIO_PIN_0);
 8000e88:	f000 bd6a 	b.w	8001960 <HAL_GPIO_EXTI_IRQHandler>
 8000e8c:	20000050 	.word	0x20000050
 8000e90:	40010800 	.word	0x40010800
 8000e94:	2000145c 	.word	0x2000145c

08000e98 <EXTI1_IRQHandler>:

/**
  * @brief This function handles EXTI line1 interrupt.
  */
void EXTI1_IRQHandler(void)
{
 8000e98:	b508      	push	{r3, lr}
  /* USER CODE BEGIN EXTI1_IRQn 0 */
	button_debounced(cnt);
 8000e9a:	4b09      	ldr	r3, [pc, #36]	@ (8000ec0 <EXTI1_IRQHandler+0x28>)
 8000e9c:	8818      	ldrh	r0, [r3, #0]
 8000e9e:	f7ff ffa3 	bl	8000de8 <button_debounced>
	if(!(GPIOA->IDR & GPIO_IDR_IDR1)) {
 8000ea2:	4b08      	ldr	r3, [pc, #32]	@ (8000ec4 <EXTI1_IRQHandler+0x2c>)
 8000ea4:	689b      	ldr	r3, [r3, #8]
 8000ea6:	079b      	lsls	r3, r3, #30
	    // PA5 = LOW (0V)
		__NOP();
 8000ea8:	bf00      	nop
	    __HAL_TIM_SET_COMPARE(&htim4, TIM_CHANNEL_4, 100);
 8000eaa:	bf54      	ite	pl
 8000eac:	2264      	movpl	r2, #100	@ 0x64

	}else{
		__NOP();
        __HAL_TIM_SET_COMPARE(&htim4, TIM_CHANNEL_4, 0);
 8000eae:	2200      	movmi	r2, #0
 8000eb0:	4b05      	ldr	r3, [pc, #20]	@ (8000ec8 <EXTI1_IRQHandler+0x30>)
	}


  /* USER CODE END EXTI1_IRQn 0 */
  HAL_GPIO_EXTI_IRQHandler(GPIO_PIN_1);
 8000eb2:	2002      	movs	r0, #2
        __HAL_TIM_SET_COMPARE(&htim4, TIM_CHANNEL_4, 0);
 8000eb4:	681b      	ldr	r3, [r3, #0]
 8000eb6:	641a      	str	r2, [r3, #64]	@ 0x40
  /* USER CODE BEGIN EXTI1_IRQn 1 */

  /* USER CODE END EXTI1_IRQn 1 */
}
 8000eb8:	e8bd 4008 	ldmia.w	sp!, {r3, lr}
  HAL_GPIO_EXTI_IRQHandler(GPIO_PIN_1);
 8000ebc:	f000 bd50 	b.w	8001960 <HAL_GPIO_EXTI_IRQHandler>
 8000ec0:	20000050 	.word	0x20000050
 8000ec4:	40010800 	.word	0x40010800
 8000ec8:	2000145c 	.word	0x2000145c

08000ecc <EXTI2_IRQHandler>:

/**
  * @brief This function handles EXTI line2 interrupt.
  */
void EXTI2_IRQHandler(void)
{
 8000ecc:	b508      	push	{r3, lr}
  /* USER CODE BEGIN EXTI2_IRQn 0 */
	button_debounced(cnt);
 8000ece:	4b09      	ldr	r3, [pc, #36]	@ (8000ef4 <EXTI2_IRQHandler+0x28>)
 8000ed0:	8818      	ldrh	r0, [r3, #0]
 8000ed2:	f7ff ff89 	bl	8000de8 <button_debounced>
	if(!(GPIOA->IDR & GPIO_IDR_IDR2)) {
 8000ed6:	4b08      	ldr	r3, [pc, #32]	@ (8000ef8 <EXTI2_IRQHandler+0x2c>)


//	EXTI->PR = EXTI_PR_PR2;

  /* USER CODE END EXTI2_IRQn 0 */
  HAL_GPIO_EXTI_IRQHandler(GPIO_PIN_2);
 8000ed8:	2004      	movs	r0, #4
	if(!(GPIOA->IDR & GPIO_IDR_IDR2)) {
 8000eda:	689b      	ldr	r3, [r3, #8]
 8000edc:	075b      	lsls	r3, r3, #29
	    __HAL_TIM_SET_COMPARE(&htim4, TIM_CHANNEL_4, 150);
 8000ede:	bf54      	ite	pl
 8000ee0:	2296      	movpl	r2, #150	@ 0x96
        __HAL_TIM_SET_COMPARE(&htim4, TIM_CHANNEL_4, 0);
 8000ee2:	2200      	movmi	r2, #0
 8000ee4:	4b05      	ldr	r3, [pc, #20]	@ (8000efc <EXTI2_IRQHandler+0x30>)
 8000ee6:	681b      	ldr	r3, [r3, #0]
 8000ee8:	641a      	str	r2, [r3, #64]	@ 0x40
  /* USER CODE BEGIN EXTI2_IRQn 1 */

  /* USER CODE END EXTI2_IRQn 1 */
}
 8000eea:	e8bd 4008 	ldmia.w	sp!, {r3, lr}
  HAL_GPIO_EXTI_IRQHandler(GPIO_PIN_2);
 8000eee:	f000 bd37 	b.w	8001960 <HAL_GPIO_EXTI_IRQHandler>
 8000ef2:	bf00      	nop
 8000ef4:	20000050 	.word	0x20000050
 8000ef8:	40010800 	.word	0x40010800
 8000efc:	2000145c 	.word	0x2000145c

08000f00 <EXTI3_IRQHandler>:

/**
  * @brief This function handles EXTI line3 interrupt.
  */
void EXTI3_IRQHandler(void)
{
 8000f00:	b508      	push	{r3, lr}
  /* USER CODE BEGIN EXTI3_IRQn 0 */
	button_debounced(cnt);
 8000f02:	4b09      	ldr	r3, [pc, #36]	@ (8000f28 <EXTI3_IRQHandler+0x28>)
 8000f04:	8818      	ldrh	r0, [r3, #0]
 8000f06:	f7ff ff6f 	bl	8000de8 <button_debounced>
	if(!(GPIOA->IDR & GPIO_IDR_IDR3)) {
 8000f0a:	4b08      	ldr	r3, [pc, #32]	@ (8000f2c <EXTI3_IRQHandler+0x2c>)
 8000f0c:	689b      	ldr	r3, [r3, #8]
 8000f0e:	071b      	lsls	r3, r3, #28
		__NOP();
 8000f10:	bf00      	nop
	    __HAL_TIM_SET_COMPARE(&htim4, TIM_CHANNEL_4, 200);
 8000f12:	bf54      	ite	pl
 8000f14:	22c8      	movpl	r2, #200	@ 0xc8

	}else{
		__NOP();
        __HAL_TIM_SET_COMPARE(&htim4, TIM_CHANNEL_4, 0);
 8000f16:	2200      	movmi	r2, #0
 8000f18:	4b05      	ldr	r3, [pc, #20]	@ (8000f30 <EXTI3_IRQHandler+0x30>)


//	EXTI->PR = EXTI_PR_PR3;

  /* USER CODE END EXTI3_IRQn 0 */
  HAL_GPIO_EXTI_IRQHandler(GPIO_PIN_3);
 8000f1a:	2008      	movs	r0, #8
        __HAL_TIM_SET_COMPARE(&htim4, TIM_CHANNEL_4, 0);
 8000f1c:	681b      	ldr	r3, [r3, #0]
 8000f1e:	641a      	str	r2, [r3, #64]	@ 0x40
  /* USER CODE BEGIN EXTI3_IRQn 1 */

  /* USER CODE END EXTI3_IRQn 1 */
}
 8000f20:	e8bd 4008 	ldmia.w	sp!, {r3, lr}
  HAL_GPIO_EXTI_IRQHandler(GPIO_PIN_3);
 8000f24:	f000 bd1c 	b.w	8001960 <HAL_GPIO_EXTI_IRQHandler>
 8000f28:	20000050 	.word	0x20000050
 8000f2c:	40010800 	.word	0x40010800
 8000f30:	2000145c 	.word	0x2000145c

08000f34 <EXTI4_IRQHandler>:

/**
  * @brief This function handles EXTI line4 interrupt.
  */
void EXTI4_IRQHandler(void)
{
 8000f34:	b508      	push	{r3, lr}
  /* USER CODE BEGIN EXTI4_IRQn 0 */
	button_debounced(cnt);
 8000f36:	4b09      	ldr	r3, [pc, #36]	@ (8000f5c <EXTI4_IRQHandler+0x28>)
 8000f38:	8818      	ldrh	r0, [r3, #0]
 8000f3a:	f7ff ff55 	bl	8000de8 <button_debounced>
	if(!(GPIOA->IDR & GPIO_IDR_IDR4)) {
 8000f3e:	4b08      	ldr	r3, [pc, #32]	@ (8000f60 <EXTI4_IRQHandler+0x2c>)
 8000f40:	689b      	ldr	r3, [r3, #8]
 8000f42:	06db      	lsls	r3, r3, #27
		__NOP();
 8000f44:	bf00      	nop
	    __HAL_TIM_SET_COMPARE(&htim4, TIM_CHANNEL_4, 250);
 8000f46:	bf54      	ite	pl
 8000f48:	22fa      	movpl	r2, #250	@ 0xfa
	}else{
		__NOP();
        __HAL_TIM_SET_COMPARE(&htim4, TIM_CHANNEL_4, 0);
 8000f4a:	2200      	movmi	r2, #0
 8000f4c:	4b05      	ldr	r3, [pc, #20]	@ (8000f64 <EXTI4_IRQHandler+0x30>)
	}

  /* USER CODE END EXTI4_IRQn 0 */
  HAL_GPIO_EXTI_IRQHandler(GPIO_PIN_4);
 8000f4e:	2010      	movs	r0, #16
        __HAL_TIM_SET_COMPARE(&htim4, TIM_CHANNEL_4, 0);
 8000f50:	681b      	ldr	r3, [r3, #0]
 8000f52:	641a      	str	r2, [r3, #64]	@ 0x40
  /* USER CODE BEGIN EXTI4_IRQn 1 */

  /* USER CODE END EXTI4_IRQn 1 */
}
 8000f54:	e8bd 4008 	ldmia.w	sp!, {r3, lr}
  HAL_GPIO_EXTI_IRQHandler(GPIO_PIN_4);
 8000f58:	f000 bd02 	b.w	8001960 <HAL_GPIO_EXTI_IRQHandler>
 8000f5c:	20000050 	.word	0x20000050
 8000f60:	40010800 	.word	0x40010800
 8000f64:	2000145c 	.word	0x2000145c

08000f68 <EXTI9_5_IRQHandler>:

/**
  * @brief This function handles EXTI line[9:5] interrupts.
  */
void EXTI9_5_IRQHandler(void)
{
 8000f68:	b508      	push	{r3, lr}





if(EXTI->PR & EXTI_PR_PR5) {
 8000f6a:	4b63      	ldr	r3, [pc, #396]	@ (80010f8 <EXTI9_5_IRQHandler+0x190>)
 8000f6c:	695b      	ldr	r3, [r3, #20]
 8000f6e:	0699      	lsls	r1, r3, #26
 8000f70:	d422      	bmi.n	8000fb8 <EXTI9_5_IRQHandler+0x50>
//    EXTI->PR = EXTI_PR_PR5;
//	current_time = HAL_GetTick();

}

if(EXTI->PR & EXTI_PR_PR6) {
 8000f72:	4b61      	ldr	r3, [pc, #388]	@ (80010f8 <EXTI9_5_IRQHandler+0x190>)
 8000f74:	695b      	ldr	r3, [r3, #20]
 8000f76:	0658      	lsls	r0, r3, #25
 8000f78:	d439      	bmi.n	8000fee <EXTI9_5_IRQHandler+0x86>
//    GPIOA->ODR ^= GPIO_ODR_ODR5;
//    EXTI->PR = EXTI_PR_PR5;
}


if(EXTI->PR & EXTI_PR_PR7) {
 8000f7a:	4b5f      	ldr	r3, [pc, #380]	@ (80010f8 <EXTI9_5_IRQHandler+0x190>)
 8000f7c:	695b      	ldr	r3, [r3, #20]
 8000f7e:	061b      	lsls	r3, r3, #24
 8000f80:	d446      	bmi.n	8001010 <EXTI9_5_IRQHandler+0xa8>
	        HAL_GPIO_EXTI_IRQHandler(GPIO_PIN_7);
		}
	//__NOP();
}

if(EXTI->PR & EXTI_PR_PR8) {
 8000f82:	4b5d      	ldr	r3, [pc, #372]	@ (80010f8 <EXTI9_5_IRQHandler+0x190>)
 8000f84:	695b      	ldr	r3, [r3, #20]
 8000f86:	05da      	lsls	r2, r3, #23
 8000f88:	d459      	bmi.n	800103e <EXTI9_5_IRQHandler+0xd6>
//    EXTI->PR = EXTI_PR_PR5;
}



if(EXTI->PR & EXTI_PR_PR9) {
 8000f8a:	4b5b      	ldr	r3, [pc, #364]	@ (80010f8 <EXTI9_5_IRQHandler+0x190>)
 8000f8c:	695b      	ldr	r3, [r3, #20]
 8000f8e:	0599      	lsls	r1, r3, #22
 8000f90:	d466      	bmi.n	8001060 <EXTI9_5_IRQHandler+0xf8>
//	EXTI->PR = EXTI_PR_PR7;



  /* USER CODE END EXTI9_5_IRQn 0 */
  HAL_GPIO_EXTI_IRQHandler(GPIO_PIN_5);
 8000f92:	2020      	movs	r0, #32
 8000f94:	f000 fce4 	bl	8001960 <HAL_GPIO_EXTI_IRQHandler>
  HAL_GPIO_EXTI_IRQHandler(GPIO_PIN_6);
 8000f98:	2040      	movs	r0, #64	@ 0x40
 8000f9a:	f000 fce1 	bl	8001960 <HAL_GPIO_EXTI_IRQHandler>
  HAL_GPIO_EXTI_IRQHandler(GPIO_PIN_7);
 8000f9e:	2080      	movs	r0, #128	@ 0x80
 8000fa0:	f000 fcde 	bl	8001960 <HAL_GPIO_EXTI_IRQHandler>
  HAL_GPIO_EXTI_IRQHandler(GPIO_PIN_8);
 8000fa4:	f44f 7080 	mov.w	r0, #256	@ 0x100
 8000fa8:	f000 fcda 	bl	8001960 <HAL_GPIO_EXTI_IRQHandler>
  HAL_GPIO_EXTI_IRQHandler(GPIO_PIN_9);
  /* USER CODE BEGIN EXTI9_5_IRQn 1 */

  /* USER CODE END EXTI9_5_IRQn 1 */
}
 8000fac:	e8bd 4008 	ldmia.w	sp!, {r3, lr}
  HAL_GPIO_EXTI_IRQHandler(GPIO_PIN_9);
 8000fb0:	f44f 7000 	mov.w	r0, #512	@ 0x200
 8000fb4:	f000 bcd4 	b.w	8001960 <HAL_GPIO_EXTI_IRQHandler>
button_debounced(cnt);
 8000fb8:	4b50      	ldr	r3, [pc, #320]	@ (80010fc <EXTI9_5_IRQHandler+0x194>)
 8000fba:	8818      	ldrh	r0, [r3, #0]
 8000fbc:	f7ff ff14 	bl	8000de8 <button_debounced>
			if(!(GPIOA->IDR & GPIO_IDR_IDR5)) {
 8000fc0:	4b4f      	ldr	r3, [pc, #316]	@ (8001100 <EXTI9_5_IRQHandler+0x198>)
 8000fc2:	689b      	ldr	r3, [r3, #8]
 8000fc4:	069a      	lsls	r2, r3, #26
 8000fc6:	d404      	bmi.n	8000fd2 <EXTI9_5_IRQHandler+0x6a>
			    __HAL_TIM_SET_COMPARE(&htim4, TIM_CHANNEL_4, 300);
 8000fc8:	f44f 7296 	mov.w	r2, #300	@ 0x12c
 8000fcc:	4b4d      	ldr	r3, [pc, #308]	@ (8001104 <EXTI9_5_IRQHandler+0x19c>)
 8000fce:	681b      	ldr	r3, [r3, #0]
 8000fd0:	641a      	str	r2, [r3, #64]	@ 0x40
 last_time =HAL_GetTick();
 8000fd2:	f000 fa31 	bl	8001438 <HAL_GetTick>
			if((GPIOA->IDR & GPIO_IDR_IDR5)) {
 8000fd6:	4b4a      	ldr	r3, [pc, #296]	@ (8001100 <EXTI9_5_IRQHandler+0x198>)
 8000fd8:	689b      	ldr	r3, [r3, #8]
 8000fda:	069b      	lsls	r3, r3, #26
 8000fdc:	d5c9      	bpl.n	8000f72 <EXTI9_5_IRQHandler+0xa>
		        __HAL_TIM_SET_COMPARE(&htim4, TIM_CHANNEL_4, 0);
 8000fde:	2200      	movs	r2, #0
 8000fe0:	4b48      	ldr	r3, [pc, #288]	@ (8001104 <EXTI9_5_IRQHandler+0x19c>)
 8000fe2:	681b      	ldr	r3, [r3, #0]
 8000fe4:	641a      	str	r2, [r3, #64]	@ 0x40
if(EXTI->PR & EXTI_PR_PR6) {
 8000fe6:	4b44      	ldr	r3, [pc, #272]	@ (80010f8 <EXTI9_5_IRQHandler+0x190>)
 8000fe8:	695b      	ldr	r3, [r3, #20]
 8000fea:	0658      	lsls	r0, r3, #25
 8000fec:	d5c5      	bpl.n	8000f7a <EXTI9_5_IRQHandler+0x12>
 button_debounced(cnt);
 8000fee:	4b43      	ldr	r3, [pc, #268]	@ (80010fc <EXTI9_5_IRQHandler+0x194>)
 8000ff0:	8818      	ldrh	r0, [r3, #0]
 8000ff2:	f7ff fef9 	bl	8000de8 <button_debounced>
	 if(!(GPIOA->IDR & GPIO_IDR_IDR6)) {
 8000ff6:	4b42      	ldr	r3, [pc, #264]	@ (8001100 <EXTI9_5_IRQHandler+0x198>)
 8000ff8:	689b      	ldr	r3, [r3, #8]
 8000ffa:	0659      	lsls	r1, r3, #25
 8000ffc:	d54d      	bpl.n	800109a <EXTI9_5_IRQHandler+0x132>
	 if((GPIOA->IDR & GPIO_IDR_IDR6)){
 8000ffe:	4b40      	ldr	r3, [pc, #256]	@ (8001100 <EXTI9_5_IRQHandler+0x198>)
 8001000:	689b      	ldr	r3, [r3, #8]
 8001002:	065a      	lsls	r2, r3, #25
 8001004:	d441      	bmi.n	800108a <EXTI9_5_IRQHandler+0x122>
	__NOP();
 8001006:	bf00      	nop
if(EXTI->PR & EXTI_PR_PR7) {
 8001008:	4b3b      	ldr	r3, [pc, #236]	@ (80010f8 <EXTI9_5_IRQHandler+0x190>)
 800100a:	695b      	ldr	r3, [r3, #20]
 800100c:	061b      	lsls	r3, r3, #24
 800100e:	d5b8      	bpl.n	8000f82 <EXTI9_5_IRQHandler+0x1a>
	button_debounced(cnt);
 8001010:	4b3a      	ldr	r3, [pc, #232]	@ (80010fc <EXTI9_5_IRQHandler+0x194>)
 8001012:	8818      	ldrh	r0, [r3, #0]
 8001014:	f7ff fee8 	bl	8000de8 <button_debounced>
	 if(!(GPIOA->IDR & GPIO_IDR_IDR7)) {
 8001018:	4b39      	ldr	r3, [pc, #228]	@ (8001100 <EXTI9_5_IRQHandler+0x198>)
 800101a:	689b      	ldr	r3, [r3, #8]
 800101c:	0618      	lsls	r0, r3, #24
 800101e:	d545      	bpl.n	80010ac <EXTI9_5_IRQHandler+0x144>
	 if((GPIOA->IDR & GPIO_IDR_IDR7)){
 8001020:	4b37      	ldr	r3, [pc, #220]	@ (8001100 <EXTI9_5_IRQHandler+0x198>)
 8001022:	689b      	ldr	r3, [r3, #8]
 8001024:	0619      	lsls	r1, r3, #24
 8001026:	d5ac      	bpl.n	8000f82 <EXTI9_5_IRQHandler+0x1a>
	        __HAL_TIM_SET_COMPARE(&htim4, TIM_CHANNEL_4, 0);
 8001028:	2200      	movs	r2, #0
 800102a:	4b36      	ldr	r3, [pc, #216]	@ (8001104 <EXTI9_5_IRQHandler+0x19c>)
	        HAL_GPIO_EXTI_IRQHandler(GPIO_PIN_7);
 800102c:	2080      	movs	r0, #128	@ 0x80
	        __HAL_TIM_SET_COMPARE(&htim4, TIM_CHANNEL_4, 0);
 800102e:	681b      	ldr	r3, [r3, #0]
 8001030:	641a      	str	r2, [r3, #64]	@ 0x40
	        HAL_GPIO_EXTI_IRQHandler(GPIO_PIN_7);
 8001032:	f000 fc95 	bl	8001960 <HAL_GPIO_EXTI_IRQHandler>
if(EXTI->PR & EXTI_PR_PR8) {
 8001036:	4b30      	ldr	r3, [pc, #192]	@ (80010f8 <EXTI9_5_IRQHandler+0x190>)
 8001038:	695b      	ldr	r3, [r3, #20]
 800103a:	05da      	lsls	r2, r3, #23
 800103c:	d5a5      	bpl.n	8000f8a <EXTI9_5_IRQHandler+0x22>
	button_debounced(cnt);
 800103e:	4b2f      	ldr	r3, [pc, #188]	@ (80010fc <EXTI9_5_IRQHandler+0x194>)
 8001040:	8818      	ldrh	r0, [r3, #0]
 8001042:	f7ff fed1 	bl	8000de8 <button_debounced>
	 if(!(GPIOA->IDR & GPIO_IDR_IDR8)) {
 8001046:	4b2e      	ldr	r3, [pc, #184]	@ (8001100 <EXTI9_5_IRQHandler+0x198>)
 8001048:	689b      	ldr	r3, [r3, #8]
 800104a:	05db      	lsls	r3, r3, #23
 800104c:	d54a      	bpl.n	80010e4 <EXTI9_5_IRQHandler+0x17c>
	 if((GPIOA->IDR & GPIO_IDR_IDR8)){
 800104e:	4b2c      	ldr	r3, [pc, #176]	@ (8001100 <EXTI9_5_IRQHandler+0x198>)
 8001050:	689b      	ldr	r3, [r3, #8]
 8001052:	05d8      	lsls	r0, r3, #23
 8001054:	d43d      	bmi.n	80010d2 <EXTI9_5_IRQHandler+0x16a>
	__NOP();
 8001056:	bf00      	nop
if(EXTI->PR & EXTI_PR_PR9) {
 8001058:	4b27      	ldr	r3, [pc, #156]	@ (80010f8 <EXTI9_5_IRQHandler+0x190>)
 800105a:	695b      	ldr	r3, [r3, #20]
 800105c:	0599      	lsls	r1, r3, #22
 800105e:	d598      	bpl.n	8000f92 <EXTI9_5_IRQHandler+0x2a>
	button_debounced(cnt);
 8001060:	4b26      	ldr	r3, [pc, #152]	@ (80010fc <EXTI9_5_IRQHandler+0x194>)
 8001062:	8818      	ldrh	r0, [r3, #0]
 8001064:	f7ff fec0 	bl	8000de8 <button_debounced>
	 if(!(GPIOA->IDR & GPIO_IDR_IDR9)) {
 8001068:	4b25      	ldr	r3, [pc, #148]	@ (8001100 <EXTI9_5_IRQHandler+0x198>)
 800106a:	689b      	ldr	r3, [r3, #8]
 800106c:	059a      	lsls	r2, r3, #22
 800106e:	d526      	bpl.n	80010be <EXTI9_5_IRQHandler+0x156>
	 if((GPIOA->IDR & GPIO_IDR_IDR9)){
 8001070:	4b23      	ldr	r3, [pc, #140]	@ (8001100 <EXTI9_5_IRQHandler+0x198>)
 8001072:	689b      	ldr	r3, [r3, #8]
 8001074:	059b      	lsls	r3, r3, #22
 8001076:	d58c      	bpl.n	8000f92 <EXTI9_5_IRQHandler+0x2a>
	        __HAL_TIM_SET_COMPARE(&htim4, TIM_CHANNEL_4, 0);
 8001078:	2200      	movs	r2, #0
 800107a:	4b22      	ldr	r3, [pc, #136]	@ (8001104 <EXTI9_5_IRQHandler+0x19c>)
	        HAL_GPIO_EXTI_IRQHandler(GPIO_PIN_9);
 800107c:	f44f 7000 	mov.w	r0, #512	@ 0x200
	        __HAL_TIM_SET_COMPARE(&htim4, TIM_CHANNEL_4, 0);
 8001080:	681b      	ldr	r3, [r3, #0]
 8001082:	641a      	str	r2, [r3, #64]	@ 0x40
	        HAL_GPIO_EXTI_IRQHandler(GPIO_PIN_9);
 8001084:	f000 fc6c 	bl	8001960 <HAL_GPIO_EXTI_IRQHandler>
 8001088:	e783      	b.n	8000f92 <EXTI9_5_IRQHandler+0x2a>
	        __HAL_TIM_SET_COMPARE(&htim4, TIM_CHANNEL_4, 0);
 800108a:	2200      	movs	r2, #0
 800108c:	4b1d      	ldr	r3, [pc, #116]	@ (8001104 <EXTI9_5_IRQHandler+0x19c>)
	        HAL_GPIO_EXTI_IRQHandler(GPIO_PIN_6);
 800108e:	2040      	movs	r0, #64	@ 0x40
	        __HAL_TIM_SET_COMPARE(&htim4, TIM_CHANNEL_4, 0);
 8001090:	681b      	ldr	r3, [r3, #0]
 8001092:	641a      	str	r2, [r3, #64]	@ 0x40
	        HAL_GPIO_EXTI_IRQHandler(GPIO_PIN_6);
 8001094:	f000 fc64 	bl	8001960 <HAL_GPIO_EXTI_IRQHandler>
 8001098:	e7b5      	b.n	8001006 <EXTI9_5_IRQHandler+0x9e>
		    __HAL_TIM_SET_COMPARE(&htim4, TIM_CHANNEL_4, 350);
 800109a:	f44f 72af 	mov.w	r2, #350	@ 0x15e
 800109e:	4b19      	ldr	r3, [pc, #100]	@ (8001104 <EXTI9_5_IRQHandler+0x19c>)
		       HAL_GPIO_EXTI_IRQHandler(GPIO_PIN_6);
 80010a0:	2040      	movs	r0, #64	@ 0x40
		    __HAL_TIM_SET_COMPARE(&htim4, TIM_CHANNEL_4, 350);
 80010a2:	681b      	ldr	r3, [r3, #0]
 80010a4:	641a      	str	r2, [r3, #64]	@ 0x40
		       HAL_GPIO_EXTI_IRQHandler(GPIO_PIN_6);
 80010a6:	f000 fc5b 	bl	8001960 <HAL_GPIO_EXTI_IRQHandler>
 80010aa:	e7a8      	b.n	8000ffe <EXTI9_5_IRQHandler+0x96>
		    __HAL_TIM_SET_COMPARE(&htim4, TIM_CHANNEL_4, 400);
 80010ac:	f44f 72c8 	mov.w	r2, #400	@ 0x190
 80010b0:	4b14      	ldr	r3, [pc, #80]	@ (8001104 <EXTI9_5_IRQHandler+0x19c>)
		      HAL_GPIO_EXTI_IRQHandler(GPIO_PIN_7);
 80010b2:	2080      	movs	r0, #128	@ 0x80
		    __HAL_TIM_SET_COMPARE(&htim4, TIM_CHANNEL_4, 400);
 80010b4:	681b      	ldr	r3, [r3, #0]
 80010b6:	641a      	str	r2, [r3, #64]	@ 0x40
		      HAL_GPIO_EXTI_IRQHandler(GPIO_PIN_7);
 80010b8:	f000 fc52 	bl	8001960 <HAL_GPIO_EXTI_IRQHandler>
 80010bc:	e7b0      	b.n	8001020 <EXTI9_5_IRQHandler+0xb8>
		    __HAL_TIM_SET_COMPARE(&htim4, TIM_CHANNEL_4, 500);
 80010be:	f44f 72fa 	mov.w	r2, #500	@ 0x1f4
 80010c2:	4b10      	ldr	r3, [pc, #64]	@ (8001104 <EXTI9_5_IRQHandler+0x19c>)
		      HAL_GPIO_EXTI_IRQHandler(GPIO_PIN_9);
 80010c4:	f44f 7000 	mov.w	r0, #512	@ 0x200
		    __HAL_TIM_SET_COMPARE(&htim4, TIM_CHANNEL_4, 500);
 80010c8:	681b      	ldr	r3, [r3, #0]
 80010ca:	641a      	str	r2, [r3, #64]	@ 0x40
		      HAL_GPIO_EXTI_IRQHandler(GPIO_PIN_9);
 80010cc:	f000 fc48 	bl	8001960 <HAL_GPIO_EXTI_IRQHandler>
 80010d0:	e7ce      	b.n	8001070 <EXTI9_5_IRQHandler+0x108>
	        __HAL_TIM_SET_COMPARE(&htim4, TIM_CHANNEL_4, 0);
 80010d2:	2200      	movs	r2, #0
 80010d4:	4b0b      	ldr	r3, [pc, #44]	@ (8001104 <EXTI9_5_IRQHandler+0x19c>)
	        HAL_GPIO_EXTI_IRQHandler(GPIO_PIN_8);
 80010d6:	f44f 7080 	mov.w	r0, #256	@ 0x100
	        __HAL_TIM_SET_COMPARE(&htim4, TIM_CHANNEL_4, 0);
 80010da:	681b      	ldr	r3, [r3, #0]
 80010dc:	641a      	str	r2, [r3, #64]	@ 0x40
	        HAL_GPIO_EXTI_IRQHandler(GPIO_PIN_8);
 80010de:	f000 fc3f 	bl	8001960 <HAL_GPIO_EXTI_IRQHandler>
 80010e2:	e7b8      	b.n	8001056 <EXTI9_5_IRQHandler+0xee>
		    __HAL_TIM_SET_COMPARE(&htim4, TIM_CHANNEL_4, 450);
 80010e4:	f44f 72e1 	mov.w	r2, #450	@ 0x1c2
 80010e8:	4b06      	ldr	r3, [pc, #24]	@ (8001104 <EXTI9_5_IRQHandler+0x19c>)
		       HAL_GPIO_EXTI_IRQHandler(GPIO_PIN_8);
 80010ea:	f44f 7080 	mov.w	r0, #256	@ 0x100
		    __HAL_TIM_SET_COMPARE(&htim4, TIM_CHANNEL_4, 450);
 80010ee:	681b      	ldr	r3, [r3, #0]
 80010f0:	641a      	str	r2, [r3, #64]	@ 0x40
		       HAL_GPIO_EXTI_IRQHandler(GPIO_PIN_8);
 80010f2:	f000 fc35 	bl	8001960 <HAL_GPIO_EXTI_IRQHandler>
 80010f6:	e7aa      	b.n	800104e <EXTI9_5_IRQHandler+0xe6>
 80010f8:	40010400 	.word	0x40010400
 80010fc:	20000050 	.word	0x20000050
 8001100:	40010800 	.word	0x40010800
 8001104:	2000145c 	.word	0x2000145c

08001108 <EXTI15_10_IRQHandler>:

/**
  * @brief This function handles EXTI line[15:10] interrupts.
  */
void EXTI15_10_IRQHandler(void)
{
 8001108:	b508      	push	{r3, lr}
  /* USER CODE BEGIN EXTI15_10_IRQn 0 */




	if(EXTI->PR & EXTI_PR_PR10) {
 800110a:	4b54      	ldr	r3, [pc, #336]	@ (800125c <EXTI15_10_IRQHandler+0x154>)
 800110c:	695b      	ldr	r3, [r3, #20]
 800110e:	0558      	lsls	r0, r3, #21
 8001110:	d41d      	bmi.n	800114e <EXTI15_10_IRQHandler+0x46>
	//	__NOP();
	//    GPIOA->ODR ^= GPIO_ODR_ODR5;
	//    EXTI->PR = EXTI_PR_PR5;
	}

	if(EXTI->PR & EXTI_PR_PR11) {
 8001112:	4b52      	ldr	r3, [pc, #328]	@ (800125c <EXTI15_10_IRQHandler+0x154>)
 8001114:	695b      	ldr	r3, [r3, #20]
 8001116:	051b      	lsls	r3, r3, #20
 8001118:	d431      	bmi.n	800117e <EXTI15_10_IRQHandler+0x76>
	//	__NOP();
	//    GPIOA->ODR ^= GPIO_ODR_ODR5;
	//    EXTI->PR = EXTI_PR_PR5;
	}

	if(EXTI->PR & EXTI_PR_PR12) {
 800111a:	4b50      	ldr	r3, [pc, #320]	@ (800125c <EXTI15_10_IRQHandler+0x154>)
 800111c:	695b      	ldr	r3, [r3, #20]
 800111e:	04da      	lsls	r2, r3, #19
 8001120:	d445      	bmi.n	80011ae <EXTI15_10_IRQHandler+0xa6>
	//	__NOP();
	//    GPIOA->ODR ^= GPIO_ODR_ODR5;
	//    EXTI->PR = EXTI_PR_PR5;
	}

	if(EXTI->PR & EXTI_PR_PR15) {
 8001122:	4b4e      	ldr	r3, [pc, #312]	@ (800125c <EXTI15_10_IRQHandler+0x154>)
 8001124:	695b      	ldr	r3, [r3, #20]
 8001126:	0419      	lsls	r1, r3, #16
 8001128:	d459      	bmi.n	80011de <EXTI15_10_IRQHandler+0xd6>




  /* USER CODE END EXTI15_10_IRQn 0 */
  HAL_GPIO_EXTI_IRQHandler(GPIO_PIN_10);
 800112a:	f44f 6080 	mov.w	r0, #1024	@ 0x400
 800112e:	f000 fc17 	bl	8001960 <HAL_GPIO_EXTI_IRQHandler>
  HAL_GPIO_EXTI_IRQHandler(GPIO_PIN_11);
 8001132:	f44f 6000 	mov.w	r0, #2048	@ 0x800
 8001136:	f000 fc13 	bl	8001960 <HAL_GPIO_EXTI_IRQHandler>
  HAL_GPIO_EXTI_IRQHandler(GPIO_PIN_12);
 800113a:	f44f 5080 	mov.w	r0, #4096	@ 0x1000
 800113e:	f000 fc0f 	bl	8001960 <HAL_GPIO_EXTI_IRQHandler>
  HAL_GPIO_EXTI_IRQHandler(GPIO_PIN_15);
  /* USER CODE BEGIN EXTI15_10_IRQn 1 */

  /* USER CODE END EXTI15_10_IRQn 1 */
}
 8001142:	e8bd 4008 	ldmia.w	sp!, {r3, lr}
  HAL_GPIO_EXTI_IRQHandler(GPIO_PIN_15);
 8001146:	f44f 4000 	mov.w	r0, #32768	@ 0x8000
 800114a:	f000 bc09 	b.w	8001960 <HAL_GPIO_EXTI_IRQHandler>
		button_debounced(cnt);
 800114e:	4b44      	ldr	r3, [pc, #272]	@ (8001260 <EXTI15_10_IRQHandler+0x158>)
 8001150:	8818      	ldrh	r0, [r3, #0]
 8001152:	f7ff fe49 	bl	8000de8 <button_debounced>
		 if(!(GPIOA->IDR & GPIO_IDR_IDR10)) {
 8001156:	4b43      	ldr	r3, [pc, #268]	@ (8001264 <EXTI15_10_IRQHandler+0x15c>)
 8001158:	689b      	ldr	r3, [r3, #8]
 800115a:	0559      	lsls	r1, r3, #21
 800115c:	d54d      	bpl.n	80011fa <EXTI15_10_IRQHandler+0xf2>
		 if((GPIOA->IDR & GPIO_IDR_IDR10)){
 800115e:	4b41      	ldr	r3, [pc, #260]	@ (8001264 <EXTI15_10_IRQHandler+0x15c>)
 8001160:	689b      	ldr	r3, [r3, #8]
 8001162:	055a      	lsls	r2, r3, #21
 8001164:	d5d5      	bpl.n	8001112 <EXTI15_10_IRQHandler+0xa>
		        __HAL_TIM_SET_COMPARE(&htim4, TIM_CHANNEL_4, 0);
 8001166:	2200      	movs	r2, #0
 8001168:	4b3f      	ldr	r3, [pc, #252]	@ (8001268 <EXTI15_10_IRQHandler+0x160>)
		        HAL_GPIO_EXTI_IRQHandler(GPIO_PIN_10);
 800116a:	f44f 6080 	mov.w	r0, #1024	@ 0x400
		        __HAL_TIM_SET_COMPARE(&htim4, TIM_CHANNEL_4, 0);
 800116e:	681b      	ldr	r3, [r3, #0]
 8001170:	641a      	str	r2, [r3, #64]	@ 0x40
		        HAL_GPIO_EXTI_IRQHandler(GPIO_PIN_10);
 8001172:	f000 fbf5 	bl	8001960 <HAL_GPIO_EXTI_IRQHandler>
	if(EXTI->PR & EXTI_PR_PR11) {
 8001176:	4b39      	ldr	r3, [pc, #228]	@ (800125c <EXTI15_10_IRQHandler+0x154>)
 8001178:	695b      	ldr	r3, [r3, #20]
 800117a:	051b      	lsls	r3, r3, #20
 800117c:	d5cd      	bpl.n	800111a <EXTI15_10_IRQHandler+0x12>
		button_debounced(cnt);
 800117e:	4b38      	ldr	r3, [pc, #224]	@ (8001260 <EXTI15_10_IRQHandler+0x158>)
 8001180:	8818      	ldrh	r0, [r3, #0]
 8001182:	f7ff fe31 	bl	8000de8 <button_debounced>
		 if(!(GPIOA->IDR & GPIO_IDR_IDR11)) {
 8001186:	4b37      	ldr	r3, [pc, #220]	@ (8001264 <EXTI15_10_IRQHandler+0x15c>)
 8001188:	689b      	ldr	r3, [r3, #8]
 800118a:	0518      	lsls	r0, r3, #20
 800118c:	d53f      	bpl.n	800120e <EXTI15_10_IRQHandler+0x106>
		 if((GPIOA->IDR & GPIO_IDR_IDR11)){
 800118e:	4b35      	ldr	r3, [pc, #212]	@ (8001264 <EXTI15_10_IRQHandler+0x15c>)
 8001190:	689b      	ldr	r3, [r3, #8]
 8001192:	0519      	lsls	r1, r3, #20
 8001194:	d5c1      	bpl.n	800111a <EXTI15_10_IRQHandler+0x12>
		        __HAL_TIM_SET_COMPARE(&htim4, TIM_CHANNEL_4, 0);
 8001196:	2200      	movs	r2, #0
 8001198:	4b33      	ldr	r3, [pc, #204]	@ (8001268 <EXTI15_10_IRQHandler+0x160>)
		        HAL_GPIO_EXTI_IRQHandler(GPIO_PIN_11);
 800119a:	f44f 6000 	mov.w	r0, #2048	@ 0x800
		        __HAL_TIM_SET_COMPARE(&htim4, TIM_CHANNEL_4, 0);
 800119e:	681b      	ldr	r3, [r3, #0]
 80011a0:	641a      	str	r2, [r3, #64]	@ 0x40
		        HAL_GPIO_EXTI_IRQHandler(GPIO_PIN_11);
 80011a2:	f000 fbdd 	bl	8001960 <HAL_GPIO_EXTI_IRQHandler>
	if(EXTI->PR & EXTI_PR_PR12) {
 80011a6:	4b2d      	ldr	r3, [pc, #180]	@ (800125c <EXTI15_10_IRQHandler+0x154>)
 80011a8:	695b      	ldr	r3, [r3, #20]
 80011aa:	04da      	lsls	r2, r3, #19
 80011ac:	d5b9      	bpl.n	8001122 <EXTI15_10_IRQHandler+0x1a>
		button_debounced(cnt);
 80011ae:	4b2c      	ldr	r3, [pc, #176]	@ (8001260 <EXTI15_10_IRQHandler+0x158>)
 80011b0:	8818      	ldrh	r0, [r3, #0]
 80011b2:	f7ff fe19 	bl	8000de8 <button_debounced>
		 if(!(GPIOA->IDR & GPIO_IDR_IDR12)) {
 80011b6:	4b2b      	ldr	r3, [pc, #172]	@ (8001264 <EXTI15_10_IRQHandler+0x15c>)
 80011b8:	689b      	ldr	r3, [r3, #8]
 80011ba:	04db      	lsls	r3, r3, #19
 80011bc:	d531      	bpl.n	8001222 <EXTI15_10_IRQHandler+0x11a>
		 if((GPIOA->IDR & GPIO_IDR_IDR12)){
 80011be:	4b29      	ldr	r3, [pc, #164]	@ (8001264 <EXTI15_10_IRQHandler+0x15c>)
 80011c0:	689b      	ldr	r3, [r3, #8]
 80011c2:	04d8      	lsls	r0, r3, #19
 80011c4:	d5ad      	bpl.n	8001122 <EXTI15_10_IRQHandler+0x1a>
		        __HAL_TIM_SET_COMPARE(&htim4, TIM_CHANNEL_4, 0);
 80011c6:	2200      	movs	r2, #0
 80011c8:	4b27      	ldr	r3, [pc, #156]	@ (8001268 <EXTI15_10_IRQHandler+0x160>)
		        HAL_GPIO_EXTI_IRQHandler(GPIO_PIN_12);
 80011ca:	f44f 5080 	mov.w	r0, #4096	@ 0x1000
		        __HAL_TIM_SET_COMPARE(&htim4, TIM_CHANNEL_4, 0);
 80011ce:	681b      	ldr	r3, [r3, #0]
 80011d0:	641a      	str	r2, [r3, #64]	@ 0x40
		        HAL_GPIO_EXTI_IRQHandler(GPIO_PIN_12);
 80011d2:	f000 fbc5 	bl	8001960 <HAL_GPIO_EXTI_IRQHandler>
	if(EXTI->PR & EXTI_PR_PR15) {
 80011d6:	4b21      	ldr	r3, [pc, #132]	@ (800125c <EXTI15_10_IRQHandler+0x154>)
 80011d8:	695b      	ldr	r3, [r3, #20]
 80011da:	0419      	lsls	r1, r3, #16
 80011dc:	d5a5      	bpl.n	800112a <EXTI15_10_IRQHandler+0x22>
		button_debounced(cnt);
 80011de:	4b20      	ldr	r3, [pc, #128]	@ (8001260 <EXTI15_10_IRQHandler+0x158>)
 80011e0:	8818      	ldrh	r0, [r3, #0]
 80011e2:	f7ff fe01 	bl	8000de8 <button_debounced>
		 if(!(GPIOA->IDR & GPIO_IDR_IDR15)) {
 80011e6:	4b1f      	ldr	r3, [pc, #124]	@ (8001264 <EXTI15_10_IRQHandler+0x15c>)
 80011e8:	689b      	ldr	r3, [r3, #8]
 80011ea:	041a      	lsls	r2, r3, #16
 80011ec:	d52c      	bpl.n	8001248 <EXTI15_10_IRQHandler+0x140>
		 if((GPIOA->IDR & GPIO_IDR_IDR15)){
 80011ee:	4b1d      	ldr	r3, [pc, #116]	@ (8001264 <EXTI15_10_IRQHandler+0x15c>)
 80011f0:	689b      	ldr	r3, [r3, #8]
 80011f2:	041b      	lsls	r3, r3, #16
 80011f4:	d41f      	bmi.n	8001236 <EXTI15_10_IRQHandler+0x12e>
		__NOP();
 80011f6:	bf00      	nop
 80011f8:	e797      	b.n	800112a <EXTI15_10_IRQHandler+0x22>
			    __HAL_TIM_SET_COMPARE(&htim4, TIM_CHANNEL_4, 550);
 80011fa:	f240 2226 	movw	r2, #550	@ 0x226
 80011fe:	4b1a      	ldr	r3, [pc, #104]	@ (8001268 <EXTI15_10_IRQHandler+0x160>)
			       HAL_GPIO_EXTI_IRQHandler(GPIO_PIN_10);
 8001200:	f44f 6080 	mov.w	r0, #1024	@ 0x400
			    __HAL_TIM_SET_COMPARE(&htim4, TIM_CHANNEL_4, 550);
 8001204:	681b      	ldr	r3, [r3, #0]
 8001206:	641a      	str	r2, [r3, #64]	@ 0x40
			       HAL_GPIO_EXTI_IRQHandler(GPIO_PIN_10);
 8001208:	f000 fbaa 	bl	8001960 <HAL_GPIO_EXTI_IRQHandler>
 800120c:	e7a7      	b.n	800115e <EXTI15_10_IRQHandler+0x56>
			    __HAL_TIM_SET_COMPARE(&htim4, TIM_CHANNEL_4, 600);
 800120e:	f44f 7216 	mov.w	r2, #600	@ 0x258
 8001212:	4b15      	ldr	r3, [pc, #84]	@ (8001268 <EXTI15_10_IRQHandler+0x160>)
			       HAL_GPIO_EXTI_IRQHandler(GPIO_PIN_11);
 8001214:	f44f 6000 	mov.w	r0, #2048	@ 0x800
			    __HAL_TIM_SET_COMPARE(&htim4, TIM_CHANNEL_4, 600);
 8001218:	681b      	ldr	r3, [r3, #0]
 800121a:	641a      	str	r2, [r3, #64]	@ 0x40
			       HAL_GPIO_EXTI_IRQHandler(GPIO_PIN_11);
 800121c:	f000 fba0 	bl	8001960 <HAL_GPIO_EXTI_IRQHandler>
 8001220:	e7b5      	b.n	800118e <EXTI15_10_IRQHandler+0x86>
			    __HAL_TIM_SET_COMPARE(&htim4, TIM_CHANNEL_4, 650);
 8001222:	f240 228a 	movw	r2, #650	@ 0x28a
 8001226:	4b10      	ldr	r3, [pc, #64]	@ (8001268 <EXTI15_10_IRQHandler+0x160>)
			       HAL_GPIO_EXTI_IRQHandler(GPIO_PIN_12);
 8001228:	f44f 5080 	mov.w	r0, #4096	@ 0x1000
			    __HAL_TIM_SET_COMPARE(&htim4, TIM_CHANNEL_4, 650);
 800122c:	681b      	ldr	r3, [r3, #0]
 800122e:	641a      	str	r2, [r3, #64]	@ 0x40
			       HAL_GPIO_EXTI_IRQHandler(GPIO_PIN_12);
 8001230:	f000 fb96 	bl	8001960 <HAL_GPIO_EXTI_IRQHandler>
 8001234:	e7c3      	b.n	80011be <EXTI15_10_IRQHandler+0xb6>
		        __HAL_TIM_SET_COMPARE(&htim4, TIM_CHANNEL_4, 0);
 8001236:	2200      	movs	r2, #0
 8001238:	4b0b      	ldr	r3, [pc, #44]	@ (8001268 <EXTI15_10_IRQHandler+0x160>)
		        HAL_GPIO_EXTI_IRQHandler(GPIO_PIN_15);
 800123a:	f44f 4000 	mov.w	r0, #32768	@ 0x8000
		        __HAL_TIM_SET_COMPARE(&htim4, TIM_CHANNEL_4, 0);
 800123e:	681b      	ldr	r3, [r3, #0]
 8001240:	641a      	str	r2, [r3, #64]	@ 0x40
		        HAL_GPIO_EXTI_IRQHandler(GPIO_PIN_15);
 8001242:	f000 fb8d 	bl	8001960 <HAL_GPIO_EXTI_IRQHandler>
 8001246:	e7d6      	b.n	80011f6 <EXTI15_10_IRQHandler+0xee>
			    __HAL_TIM_SET_COMPARE(&htim4, TIM_CHANNEL_4, 700);
 8001248:	f44f 722f 	mov.w	r2, #700	@ 0x2bc
 800124c:	4b06      	ldr	r3, [pc, #24]	@ (8001268 <EXTI15_10_IRQHandler+0x160>)
			       HAL_GPIO_EXTI_IRQHandler(GPIO_PIN_15);
 800124e:	f44f 4000 	mov.w	r0, #32768	@ 0x8000
			    __HAL_TIM_SET_COMPARE(&htim4, TIM_CHANNEL_4, 700);
 8001252:	681b      	ldr	r3, [r3, #0]
 8001254:	641a      	str	r2, [r3, #64]	@ 0x40
			       HAL_GPIO_EXTI_IRQHandler(GPIO_PIN_15);
 8001256:	f000 fb83 	bl	8001960 <HAL_GPIO_EXTI_IRQHandler>
 800125a:	e7c8      	b.n	80011ee <EXTI15_10_IRQHandler+0xe6>
 800125c:	40010400 	.word	0x40010400
 8001260:	20000050 	.word	0x20000050
 8001264:	40010800 	.word	0x40010800
 8001268:	2000145c 	.word	0x2000145c

0800126c <SystemInit>:

  /* Configure the Vector Table location -------------------------------------*/
#if defined(USER_VECT_TAB_ADDRESS)
  SCB->VTOR = VECT_TAB_BASE_ADDRESS | VECT_TAB_OFFSET; /* Vector Table Relocation in Internal SRAM. */
#endif /* USER_VECT_TAB_ADDRESS */
}
 800126c:	4770      	bx	lr
 800126e:	bf00      	nop

08001270 <MX_TIM4_Init>:

  /* USER CODE BEGIN TIM4_Init 0 */

  /* USER CODE END TIM4_Init 0 */

  TIM_MasterConfigTypeDef sMasterConfig = {0};
 8001270:	2300      	movs	r3, #0

  /* USER CODE BEGIN TIM4_Init 1 */

  /* USER CODE END TIM4_Init 1 */
  htim4.Instance = TIM4;
  htim4.Init.Prescaler = 72-1;
 8001272:	2147      	movs	r1, #71	@ 0x47
  htim4.Init.CounterMode = TIM_COUNTERMODE_UP;
  htim4.Init.Period = 1000-1;
 8001274:	f240 32e7 	movw	r2, #999	@ 0x3e7
{
 8001278:	b5d0      	push	{r4, r6, r7, lr}
  htim4.Instance = TIM4;
 800127a:	482d      	ldr	r0, [pc, #180]	@ (8001330 <MX_TIM4_Init+0xc0>)
 800127c:	4c2d      	ldr	r4, [pc, #180]	@ (8001334 <MX_TIM4_Init+0xc4>)
{
 800127e:	b090      	sub	sp, #64	@ 0x40
  htim4.Instance = TIM4;
 8001280:	6020      	str	r0, [r4, #0]
  htim4.Init.ClockDivision = TIM_CLOCKDIVISION_DIV1;
  htim4.Init.AutoReloadPreload = TIM_AUTORELOAD_PRELOAD_DISABLE;
  if (HAL_TIM_PWM_Init(&htim4) != HAL_OK)
 8001282:	4620      	mov	r0, r4
  htim4.Init.CounterMode = TIM_COUNTERMODE_UP;
 8001284:	e9c4 3202 	strd	r3, r2, [r4, #8]
  TIM_OC_InitTypeDef sConfigOC = {0};
 8001288:	e9cd 3309 	strd	r3, r3, [sp, #36]	@ 0x24
 800128c:	e9cd 330b 	strd	r3, r3, [sp, #44]	@ 0x2c
 8001290:	e9cd 330d 	strd	r3, r3, [sp, #52]	@ 0x34
  TIM_MasterConfigTypeDef sMasterConfig = {0};
 8001294:	9302      	str	r3, [sp, #8]
  TIM_OC_InitTypeDef sConfigOC = {0};
 8001296:	9308      	str	r3, [sp, #32]
  htim4.Init.Prescaler = 72-1;
 8001298:	6061      	str	r1, [r4, #4]
  htim4.Init.ClockDivision = TIM_CLOCKDIVISION_DIV1;
 800129a:	6123      	str	r3, [r4, #16]
  htim4.Init.AutoReloadPreload = TIM_AUTORELOAD_PRELOAD_DISABLE;
 800129c:	61a3      	str	r3, [r4, #24]
  TIM_MasterConfigTypeDef sMasterConfig = {0};
 800129e:	9303      	str	r3, [sp, #12]
  if (HAL_TIM_PWM_Init(&htim4) != HAL_OK)
 80012a0:	f000 fe1a 	bl	8001ed8 <HAL_TIM_PWM_Init>
 80012a4:	bb00      	cbnz	r0, 80012e8 <MX_TIM4_Init+0x78>
  {
    Error_Handler();
  }
  sMasterConfig.MasterOutputTrigger = TIM_TRGO_RESET;
 80012a6:	2200      	movs	r2, #0
 80012a8:	2300      	movs	r3, #0
  sMasterConfig.MasterSlaveMode = TIM_MASTERSLAVEMODE_DISABLE;
  if (HAL_TIMEx_MasterConfigSynchronization(&htim4, &sMasterConfig) != HAL_OK)
 80012aa:	4822      	ldr	r0, [pc, #136]	@ (8001334 <MX_TIM4_Init+0xc4>)
 80012ac:	a902      	add	r1, sp, #8
  sMasterConfig.MasterOutputTrigger = TIM_TRGO_RESET;
 80012ae:	e9cd 2302 	strd	r2, r3, [sp, #8]
  if (HAL_TIMEx_MasterConfigSynchronization(&htim4, &sMasterConfig) != HAL_OK)
 80012b2:	f000 ffc9 	bl	8002248 <HAL_TIMEx_MasterConfigSynchronization>
 80012b6:	b9e8      	cbnz	r0, 80012f4 <MX_TIM4_Init+0x84>
  {
    Error_Handler();
  }
  sConfigOC.OCMode = TIM_OCMODE_PWM1;
  sConfigOC.Pulse = 0;
  sConfigOC.OCPolarity = TIM_OCPOLARITY_HIGH;
 80012b8:	2300      	movs	r3, #0
  sConfigOC.OCMode = TIM_OCMODE_PWM1;
 80012ba:	2660      	movs	r6, #96	@ 0x60
 80012bc:	2700      	movs	r7, #0
  sConfigOC.OCFastMode = TIM_OCFAST_DISABLE;
  if (HAL_TIM_PWM_ConfigChannel(&htim4, &sConfigOC, TIM_CHANNEL_4) != HAL_OK)
 80012be:	220c      	movs	r2, #12
 80012c0:	481c      	ldr	r0, [pc, #112]	@ (8001334 <MX_TIM4_Init+0xc4>)
 80012c2:	a908      	add	r1, sp, #32
  sConfigOC.OCMode = TIM_OCMODE_PWM1;
 80012c4:	e9cd 6708 	strd	r6, r7, [sp, #32]
  sConfigOC.OCPolarity = TIM_OCPOLARITY_HIGH;
 80012c8:	930a      	str	r3, [sp, #40]	@ 0x28
  sConfigOC.OCFastMode = TIM_OCFAST_DISABLE;
 80012ca:	930c      	str	r3, [sp, #48]	@ 0x30
  if (HAL_TIM_PWM_ConfigChannel(&htim4, &sConfigOC, TIM_CHANNEL_4) != HAL_OK)
 80012cc:	f000 feca 	bl	8002064 <HAL_TIM_PWM_ConfigChannel>
 80012d0:	b968      	cbnz	r0, 80012ee <MX_TIM4_Init+0x7e>
  }
}
void HAL_TIM_MspPostInit(TIM_HandleTypeDef* timHandle)
{

  GPIO_InitTypeDef GPIO_InitStruct = {0};
 80012d2:	2300      	movs	r3, #0
  if(timHandle->Instance==TIM4)
 80012d4:	4a16      	ldr	r2, [pc, #88]	@ (8001330 <MX_TIM4_Init+0xc0>)
 80012d6:	6821      	ldr	r1, [r4, #0]
  GPIO_InitTypeDef GPIO_InitStruct = {0};
 80012d8:	e9cd 3304 	strd	r3, r3, [sp, #16]
  if(timHandle->Instance==TIM4)
 80012dc:	4291      	cmp	r1, r2
  GPIO_InitTypeDef GPIO_InitStruct = {0};
 80012de:	e9cd 3306 	strd	r3, r3, [sp, #24]
  if(timHandle->Instance==TIM4)
 80012e2:	d00a      	beq.n	80012fa <MX_TIM4_Init+0x8a>
}
 80012e4:	b010      	add	sp, #64	@ 0x40
 80012e6:	bdd0      	pop	{r4, r6, r7, pc}
    Error_Handler();
 80012e8:	f7ff fd80 	bl	8000dec <Error_Handler>
 80012ec:	e7db      	b.n	80012a6 <MX_TIM4_Init+0x36>
    Error_Handler();
 80012ee:	f7ff fd7d 	bl	8000dec <Error_Handler>
 80012f2:	e7ee      	b.n	80012d2 <MX_TIM4_Init+0x62>
    Error_Handler();
 80012f4:	f7ff fd7a 	bl	8000dec <Error_Handler>
 80012f8:	e7de      	b.n	80012b8 <MX_TIM4_Init+0x48>

    __HAL_RCC_GPIOB_CLK_ENABLE();
    /**TIM4 GPIO Configuration
    PB9     ------> TIM4_CH4
    */
    GPIO_InitStruct.Pin = GPIO_PIN_9;
 80012fa:	f44f 7600 	mov.w	r6, #512	@ 0x200
 80012fe:	2702      	movs	r7, #2
    GPIO_InitStruct.Mode = GPIO_MODE_AF_PP;
    GPIO_InitStruct.Speed = GPIO_SPEED_FREQ_LOW;
 8001300:	2402      	movs	r4, #2
    __HAL_RCC_GPIOB_CLK_ENABLE();
 8001302:	f103 4380 	add.w	r3, r3, #1073741824	@ 0x40000000
 8001306:	f503 3304 	add.w	r3, r3, #135168	@ 0x21000
 800130a:	699a      	ldr	r2, [r3, #24]
    HAL_GPIO_Init(GPIOB, &GPIO_InitStruct);
 800130c:	480a      	ldr	r0, [pc, #40]	@ (8001338 <MX_TIM4_Init+0xc8>)
    __HAL_RCC_GPIOB_CLK_ENABLE();
 800130e:	f042 0208 	orr.w	r2, r2, #8
 8001312:	619a      	str	r2, [r3, #24]
 8001314:	699b      	ldr	r3, [r3, #24]
    HAL_GPIO_Init(GPIOB, &GPIO_InitStruct);
 8001316:	a904      	add	r1, sp, #16
    __HAL_RCC_GPIOB_CLK_ENABLE();
 8001318:	f003 0308 	and.w	r3, r3, #8
 800131c:	9301      	str	r3, [sp, #4]
    GPIO_InitStruct.Pin = GPIO_PIN_9;
 800131e:	e9cd 6704 	strd	r6, r7, [sp, #16]
    __HAL_RCC_GPIOB_CLK_ENABLE();
 8001322:	9b01      	ldr	r3, [sp, #4]
    GPIO_InitStruct.Speed = GPIO_SPEED_FREQ_LOW;
 8001324:	9407      	str	r4, [sp, #28]
    HAL_GPIO_Init(GPIOB, &GPIO_InitStruct);
 8001326:	f000 f913 	bl	8001550 <HAL_GPIO_Init>
}
 800132a:	b010      	add	sp, #64	@ 0x40
 800132c:	bdd0      	pop	{r4, r6, r7, pc}
 800132e:	bf00      	nop
 8001330:	40000800 	.word	0x40000800
 8001334:	2000145c 	.word	0x2000145c
 8001338:	40010c00 	.word	0x40010c00

0800133c <HAL_TIM_PWM_MspInit>:
  if(tim_pwmHandle->Instance==TIM4)
 800133c:	4b09      	ldr	r3, [pc, #36]	@ (8001364 <HAL_TIM_PWM_MspInit+0x28>)
 800133e:	6802      	ldr	r2, [r0, #0]
 8001340:	429a      	cmp	r2, r3
 8001342:	d000      	beq.n	8001346 <HAL_TIM_PWM_MspInit+0xa>
 8001344:	4770      	bx	lr
    __HAL_RCC_TIM4_CLK_ENABLE();
 8001346:	f503 3302 	add.w	r3, r3, #133120	@ 0x20800
 800134a:	69da      	ldr	r2, [r3, #28]
{
 800134c:	b082      	sub	sp, #8
    __HAL_RCC_TIM4_CLK_ENABLE();
 800134e:	f042 0204 	orr.w	r2, r2, #4
 8001352:	61da      	str	r2, [r3, #28]
 8001354:	69db      	ldr	r3, [r3, #28]
 8001356:	f003 0304 	and.w	r3, r3, #4
 800135a:	9301      	str	r3, [sp, #4]
 800135c:	9b01      	ldr	r3, [sp, #4]
}
 800135e:	b002      	add	sp, #8
 8001360:	4770      	bx	lr
 8001362:	bf00      	nop
 8001364:	40000800 	.word	0x40000800

08001368 <Reset_Handler>:
  .weak Reset_Handler
  .type Reset_Handler, %function
Reset_Handler:

/* Call the clock system initialization function.*/
    bl  SystemInit
 8001368:	f7ff ff80 	bl	800126c <SystemInit>

/* Copy the data segment initializers from flash to SRAM */
  ldr r0, =_sdata
 800136c:	480b      	ldr	r0, [pc, #44]	@ (800139c <LoopFillZerobss+0xe>)
  ldr r1, =_edata
 800136e:	490c      	ldr	r1, [pc, #48]	@ (80013a0 <LoopFillZerobss+0x12>)
  ldr r2, =_sidata
 8001370:	4a0c      	ldr	r2, [pc, #48]	@ (80013a4 <LoopFillZerobss+0x16>)
  movs r3, #0
 8001372:	2300      	movs	r3, #0
  b LoopCopyDataInit
 8001374:	e002      	b.n	800137c <LoopCopyDataInit>

08001376 <CopyDataInit>:

CopyDataInit:
  ldr r4, [r2, r3]
 8001376:	58d4      	ldr	r4, [r2, r3]
  str r4, [r0, r3]
 8001378:	50c4      	str	r4, [r0, r3]
  adds r3, r3, #4
 800137a:	3304      	adds	r3, #4

0800137c <LoopCopyDataInit>:

LoopCopyDataInit:
  adds r4, r0, r3
 800137c:	18c4      	adds	r4, r0, r3
  cmp r4, r1
 800137e:	428c      	cmp	r4, r1
  bcc CopyDataInit
 8001380:	d3f9      	bcc.n	8001376 <CopyDataInit>
  
/* Zero fill the bss segment. */
  ldr r2, =_sbss
 8001382:	4a09      	ldr	r2, [pc, #36]	@ (80013a8 <LoopFillZerobss+0x1a>)
  ldr r4, =_ebss
 8001384:	4c09      	ldr	r4, [pc, #36]	@ (80013ac <LoopFillZerobss+0x1e>)
  movs r3, #0
 8001386:	2300      	movs	r3, #0
  b LoopFillZerobss
 8001388:	e001      	b.n	800138e <LoopFillZerobss>

0800138a <FillZerobss>:

FillZerobss:
  str  r3, [r2]
 800138a:	6013      	str	r3, [r2, #0]
  adds r2, r2, #4
 800138c:	3204      	adds	r2, #4

0800138e <LoopFillZerobss>:

LoopFillZerobss:
  cmp r2, r4
 800138e:	42a2      	cmp	r2, r4
  bcc FillZerobss
 8001390:	d3fb      	bcc.n	800138a <FillZerobss>

/* Call static constructors */
    bl __libc_init_array
 8001392:	f000 ff8b 	bl	80022ac <__libc_init_array>
/* Call the application's entry point.*/
  bl main
 8001396:	f7ff fcf3 	bl	8000d80 <main>
  bx lr
 800139a:	4770      	bx	lr
  ldr r0, =_sdata
 800139c:	20000000 	.word	0x20000000
  ldr r1, =_edata
 80013a0:	20000060 	.word	0x20000060
  ldr r2, =_sidata
 80013a4:	08002578 	.word	0x08002578
  ldr r2, =_sbss
 80013a8:	20000060 	.word	0x20000060
  ldr r4, =_ebss
 80013ac:	200014a8 	.word	0x200014a8

080013b0 <ADC1_2_IRQHandler>:
 * @retval : None
*/
    .section .text.Default_Handler,"ax",%progbits
Default_Handler:
Infinite_Loop:
  b Infinite_Loop
 80013b0:	e7fe      	b.n	80013b0 <ADC1_2_IRQHandler>
	...

080013b4 <HAL_InitTick>:
  *       implementation  in user file.
  * @param TickPriority Tick interrupt priority.
  * @retval HAL status
  */
__weak HAL_StatusTypeDef HAL_InitTick(uint32_t TickPriority)
{
 80013b4:	b538      	push	{r3, r4, r5, lr}
  /* Configure the SysTick to have interrupt in 1ms time basis*/
  if (HAL_SYSTICK_Config(SystemCoreClock / (1000U / uwTickFreq)) > 0U)
 80013b6:	f44f 737a 	mov.w	r3, #1000	@ 0x3e8
 80013ba:	4a0d      	ldr	r2, [pc, #52]	@ (80013f0 <HAL_InitTick+0x3c>)
{
 80013bc:	4605      	mov	r5, r0
  if (HAL_SYSTICK_Config(SystemCoreClock / (1000U / uwTickFreq)) > 0U)
 80013be:	7811      	ldrb	r1, [r2, #0]
 80013c0:	4a0c      	ldr	r2, [pc, #48]	@ (80013f4 <HAL_InitTick+0x40>)
 80013c2:	fbb3 f3f1 	udiv	r3, r3, r1
 80013c6:	6812      	ldr	r2, [r2, #0]
 80013c8:	fbb2 f0f3 	udiv	r0, r2, r3
 80013cc:	f000 f8a8 	bl	8001520 <HAL_SYSTICK_Config>
 80013d0:	b908      	cbnz	r0, 80013d6 <HAL_InitTick+0x22>
  {
    return HAL_ERROR;
  }

  /* Configure the SysTick IRQ priority */
  if (TickPriority < (1UL << __NVIC_PRIO_BITS))
 80013d2:	2d0f      	cmp	r5, #15
 80013d4:	d901      	bls.n	80013da <HAL_InitTick+0x26>
    return HAL_ERROR;
 80013d6:	2001      	movs	r0, #1
    return HAL_ERROR;
  }

  /* Return function status */
  return HAL_OK;
}
 80013d8:	bd38      	pop	{r3, r4, r5, pc}
 80013da:	4604      	mov	r4, r0
    HAL_NVIC_SetPriority(SysTick_IRQn, TickPriority, 0U);
 80013dc:	4602      	mov	r2, r0
 80013de:	4629      	mov	r1, r5
 80013e0:	f04f 30ff 	mov.w	r0, #4294967295
 80013e4:	f000 f852 	bl	800148c <HAL_NVIC_SetPriority>
    uwTickPrio = TickPriority;
 80013e8:	4b03      	ldr	r3, [pc, #12]	@ (80013f8 <HAL_InitTick+0x44>)
 80013ea:	4620      	mov	r0, r4
 80013ec:	601d      	str	r5, [r3, #0]
}
 80013ee:	bd38      	pop	{r3, r4, r5, pc}
 80013f0:	20000058 	.word	0x20000058
 80013f4:	20000054 	.word	0x20000054
 80013f8:	2000005c 	.word	0x2000005c

080013fc <HAL_Init>:
  __HAL_FLASH_PREFETCH_BUFFER_ENABLE();
 80013fc:	4a07      	ldr	r2, [pc, #28]	@ (800141c <HAL_Init+0x20>)
{
 80013fe:	b508      	push	{r3, lr}
  __HAL_FLASH_PREFETCH_BUFFER_ENABLE();
 8001400:	6813      	ldr	r3, [r2, #0]
  HAL_NVIC_SetPriorityGrouping(NVIC_PRIORITYGROUP_4);
 8001402:	2003      	movs	r0, #3
  __HAL_FLASH_PREFETCH_BUFFER_ENABLE();
 8001404:	f043 0310 	orr.w	r3, r3, #16
 8001408:	6013      	str	r3, [r2, #0]
  HAL_NVIC_SetPriorityGrouping(NVIC_PRIORITYGROUP_4);
 800140a:	f000 f82d 	bl	8001468 <HAL_NVIC_SetPriorityGrouping>
  HAL_InitTick(TICK_INT_PRIORITY);
 800140e:	200f      	movs	r0, #15
 8001410:	f7ff ffd0 	bl	80013b4 <HAL_InitTick>
  HAL_MspInit();
 8001414:	f7ff fcec 	bl	8000df0 <HAL_MspInit>
}
 8001418:	2000      	movs	r0, #0
 800141a:	bd08      	pop	{r3, pc}
 800141c:	40022000 	.word	0x40022000

08001420 <HAL_IncTick>:
  *      implementations in user file.
  * @retval None
  */
__weak void HAL_IncTick(void)
{
  uwTick += uwTickFreq;
 8001420:	4a03      	ldr	r2, [pc, #12]	@ (8001430 <HAL_IncTick+0x10>)
 8001422:	4b04      	ldr	r3, [pc, #16]	@ (8001434 <HAL_IncTick+0x14>)
 8001424:	6811      	ldr	r1, [r2, #0]
 8001426:	781b      	ldrb	r3, [r3, #0]
 8001428:	440b      	add	r3, r1
 800142a:	6013      	str	r3, [r2, #0]
}
 800142c:	4770      	bx	lr
 800142e:	bf00      	nop
 8001430:	200014a4 	.word	0x200014a4
 8001434:	20000058 	.word	0x20000058

08001438 <HAL_GetTick>:
  *       implementations in user file.
  * @retval tick value
  */
__weak uint32_t HAL_GetTick(void)
{
  return uwTick;
 8001438:	4b01      	ldr	r3, [pc, #4]	@ (8001440 <HAL_GetTick+0x8>)
 800143a:	6818      	ldr	r0, [r3, #0]
}
 800143c:	4770      	bx	lr
 800143e:	bf00      	nop
 8001440:	200014a4 	.word	0x200014a4

08001444 <HAL_Delay>:
  *       implementations in user file.
  * @param Delay specifies the delay time length, in milliseconds.
  * @retval None
  */
__weak void HAL_Delay(uint32_t Delay)
{
 8001444:	b538      	push	{r3, r4, r5, lr}
 8001446:	4604      	mov	r4, r0
  uint32_t tickstart = HAL_GetTick();
 8001448:	f7ff fff6 	bl	8001438 <HAL_GetTick>
  uint32_t wait = Delay;

  /* Add a freq to guarantee minimum wait */
  if (wait < HAL_MAX_DELAY)
 800144c:	1c63      	adds	r3, r4, #1
  uint32_t tickstart = HAL_GetTick();
 800144e:	4605      	mov	r5, r0
  if (wait < HAL_MAX_DELAY)
 8001450:	d002      	beq.n	8001458 <HAL_Delay+0x14>
  {
    wait += (uint32_t)(uwTickFreq);
 8001452:	4b04      	ldr	r3, [pc, #16]	@ (8001464 <HAL_Delay+0x20>)
 8001454:	781b      	ldrb	r3, [r3, #0]
 8001456:	441c      	add	r4, r3
  }

  while ((HAL_GetTick() - tickstart) < wait)
 8001458:	f7ff ffee 	bl	8001438 <HAL_GetTick>
 800145c:	1b40      	subs	r0, r0, r5
 800145e:	42a0      	cmp	r0, r4
 8001460:	d3fa      	bcc.n	8001458 <HAL_Delay+0x14>
  {
  }
}
 8001462:	bd38      	pop	{r3, r4, r5, pc}
 8001464:	20000058 	.word	0x20000058

08001468 <HAL_NVIC_SetPriorityGrouping>:
{
  uint32_t reg_value;
  uint32_t PriorityGroupTmp = (PriorityGroup & (uint32_t)0x07UL);             /* only values 0..7 are used          */

  reg_value  =  SCB->AIRCR;                                                   /* read old register configuration    */
  reg_value &= ~((uint32_t)(SCB_AIRCR_VECTKEY_Msk | SCB_AIRCR_PRIGROUP_Msk)); /* clear bits to change               */
 8001468:	f64f 0cff 	movw	ip, #63743	@ 0xf8ff
  reg_value  =  SCB->AIRCR;                                                   /* read old register configuration    */
 800146c:	4906      	ldr	r1, [pc, #24]	@ (8001488 <HAL_NVIC_SetPriorityGrouping+0x20>)
  reg_value  =  (reg_value                                   |
                ((uint32_t)0x5FAUL << SCB_AIRCR_VECTKEY_Pos) |
                (PriorityGroupTmp << SCB_AIRCR_PRIGROUP_Pos) );               /* Insert write key and priority group */
 800146e:	0203      	lsls	r3, r0, #8
  reg_value  =  SCB->AIRCR;                                                   /* read old register configuration    */
 8001470:	68ca      	ldr	r2, [r1, #12]
                (PriorityGroupTmp << SCB_AIRCR_PRIGROUP_Pos) );               /* Insert write key and priority group */
 8001472:	f403 63e0 	and.w	r3, r3, #1792	@ 0x700
  reg_value &= ~((uint32_t)(SCB_AIRCR_VECTKEY_Msk | SCB_AIRCR_PRIGROUP_Msk)); /* clear bits to change               */
 8001476:	ea02 020c 	and.w	r2, r2, ip
                ((uint32_t)0x5FAUL << SCB_AIRCR_VECTKEY_Pos) |
 800147a:	4313      	orrs	r3, r2
  reg_value  =  (reg_value                                   |
 800147c:	f043 63bf 	orr.w	r3, r3, #100139008	@ 0x5f80000
 8001480:	f443 3300 	orr.w	r3, r3, #131072	@ 0x20000
  SCB->AIRCR =  reg_value;
 8001484:	60cb      	str	r3, [r1, #12]
  /* Check the parameters */
  assert_param(IS_NVIC_PRIORITY_GROUP(PriorityGroup));
  
  /* Set the PRIGROUP[10:8] bits according to the PriorityGroup parameter value */
  NVIC_SetPriorityGrouping(PriorityGroup);
}
 8001486:	4770      	bx	lr
 8001488:	e000ed00 	.word	0xe000ed00

0800148c <HAL_NVIC_SetPriority>:
  \details Reads the priority grouping field from the NVIC Interrupt Controller.
  \return                Priority grouping field (SCB->AIRCR [10:8] PRIGROUP field).
 */
__STATIC_INLINE uint32_t __NVIC_GetPriorityGrouping(void)
{
  return ((uint32_t)((SCB->AIRCR & SCB_AIRCR_PRIGROUP_Msk) >> SCB_AIRCR_PRIGROUP_Pos));
 800148c:	4b1b      	ldr	r3, [pc, #108]	@ (80014fc <HAL_NVIC_SetPriority+0x70>)
  *         This parameter can be a value between 0 and 15
  *         A lower priority value indicates a higher priority.          
  * @retval None
  */
void HAL_NVIC_SetPriority(IRQn_Type IRQn, uint32_t PreemptPriority, uint32_t SubPriority)
{ 
 800148e:	b500      	push	{lr}
 8001490:	68db      	ldr	r3, [r3, #12]
 8001492:	f3c3 2302 	ubfx	r3, r3, #8, #3
{
  uint32_t PriorityGroupTmp = (PriorityGroup & (uint32_t)0x07UL);   /* only values 0..7 are used          */
  uint32_t PreemptPriorityBits;
  uint32_t SubPriorityBits;

  PreemptPriorityBits = ((7UL - PriorityGroupTmp) > (uint32_t)(__NVIC_PRIO_BITS)) ? (uint32_t)(__NVIC_PRIO_BITS) : (uint32_t)(7UL - PriorityGroupTmp);
 8001496:	f1c3 0e07 	rsb	lr, r3, #7
 800149a:	f1be 0f04 	cmp.w	lr, #4
  SubPriorityBits     = ((PriorityGroupTmp + (uint32_t)(__NVIC_PRIO_BITS)) < (uint32_t)7UL) ? (uint32_t)0UL : (uint32_t)((PriorityGroupTmp - 7UL) + (uint32_t)(__NVIC_PRIO_BITS));
 800149e:	f103 0c04 	add.w	ip, r3, #4
  PreemptPriorityBits = ((7UL - PriorityGroupTmp) > (uint32_t)(__NVIC_PRIO_BITS)) ? (uint32_t)(__NVIC_PRIO_BITS) : (uint32_t)(7UL - PriorityGroupTmp);
 80014a2:	bf28      	it	cs
 80014a4:	f04f 0e04 	movcs.w	lr, #4
  SubPriorityBits     = ((PriorityGroupTmp + (uint32_t)(__NVIC_PRIO_BITS)) < (uint32_t)7UL) ? (uint32_t)0UL : (uint32_t)((PriorityGroupTmp - 7UL) + (uint32_t)(__NVIC_PRIO_BITS));
 80014a8:	f1bc 0f06 	cmp.w	ip, #6
 80014ac:	d91c      	bls.n	80014e8 <HAL_NVIC_SetPriority+0x5c>
 80014ae:	f1a3 0c03 	sub.w	ip, r3, #3

  return (
           ((PreemptPriority & (uint32_t)((1UL << (PreemptPriorityBits)) - 1UL)) << SubPriorityBits) |
           ((SubPriority     & (uint32_t)((1UL << (SubPriorityBits    )) - 1UL)))
 80014b2:	f04f 33ff 	mov.w	r3, #4294967295
 80014b6:	fa03 f30c 	lsl.w	r3, r3, ip
 80014ba:	ea22 0203 	bic.w	r2, r2, r3
           ((PreemptPriority & (uint32_t)((1UL << (PreemptPriorityBits)) - 1UL)) << SubPriorityBits) |
 80014be:	f04f 33ff 	mov.w	r3, #4294967295
 80014c2:	fa03 f30e 	lsl.w	r3, r3, lr
 80014c6:	ea21 0303 	bic.w	r3, r1, r3
 80014ca:	fa03 f30c 	lsl.w	r3, r3, ip
 80014ce:	4313      	orrs	r3, r2
    NVIC->IP[((uint32_t)IRQn)]               = (uint8_t)((priority << (8U - __NVIC_PRIO_BITS)) & (uint32_t)0xFFUL);
 80014d0:	011b      	lsls	r3, r3, #4
  if ((int32_t)(IRQn) >= 0)
 80014d2:	2800      	cmp	r0, #0
    NVIC->IP[((uint32_t)IRQn)]               = (uint8_t)((priority << (8U - __NVIC_PRIO_BITS)) & (uint32_t)0xFFUL);
 80014d4:	b2db      	uxtb	r3, r3
  if ((int32_t)(IRQn) >= 0)
 80014d6:	db0a      	blt.n	80014ee <HAL_NVIC_SetPriority+0x62>
    NVIC->IP[((uint32_t)IRQn)]               = (uint8_t)((priority << (8U - __NVIC_PRIO_BITS)) & (uint32_t)0xFFUL);
 80014d8:	f100 4060 	add.w	r0, r0, #3758096384	@ 0xe0000000
 80014dc:	f500 4061 	add.w	r0, r0, #57600	@ 0xe100
 80014e0:	f880 3300 	strb.w	r3, [r0, #768]	@ 0x300
  assert_param(IS_NVIC_PREEMPTION_PRIORITY(PreemptPriority));
  
  prioritygroup = NVIC_GetPriorityGrouping();
  
  NVIC_SetPriority(IRQn, NVIC_EncodePriority(prioritygroup, PreemptPriority, SubPriority));
}
 80014e4:	f85d fb04 	ldr.w	pc, [sp], #4
 80014e8:	2200      	movs	r2, #0
  SubPriorityBits     = ((PriorityGroupTmp + (uint32_t)(__NVIC_PRIO_BITS)) < (uint32_t)7UL) ? (uint32_t)0UL : (uint32_t)((PriorityGroupTmp - 7UL) + (uint32_t)(__NVIC_PRIO_BITS));
 80014ea:	4694      	mov	ip, r2
 80014ec:	e7e7      	b.n	80014be <HAL_NVIC_SetPriority+0x32>
    SCB->SHP[(((uint32_t)IRQn) & 0xFUL)-4UL] = (uint8_t)((priority << (8U - __NVIC_PRIO_BITS)) & (uint32_t)0xFFUL);
 80014ee:	4a04      	ldr	r2, [pc, #16]	@ (8001500 <HAL_NVIC_SetPriority+0x74>)
 80014f0:	f000 000f 	and.w	r0, r0, #15
 80014f4:	4402      	add	r2, r0
 80014f6:	7613      	strb	r3, [r2, #24]
 80014f8:	f85d fb04 	ldr.w	pc, [sp], #4
 80014fc:	e000ed00 	.word	0xe000ed00
 8001500:	e000ecfc 	.word	0xe000ecfc

08001504 <HAL_NVIC_EnableIRQ>:
  if ((int32_t)(IRQn) >= 0)
 8001504:	2800      	cmp	r0, #0
 8001506:	db07      	blt.n	8001518 <HAL_NVIC_EnableIRQ+0x14>
    NVIC->ISER[(((uint32_t)IRQn) >> 5UL)] = (uint32_t)(1UL << (((uint32_t)IRQn) & 0x1FUL));
 8001508:	2301      	movs	r3, #1
 800150a:	f000 011f 	and.w	r1, r0, #31
 800150e:	4a03      	ldr	r2, [pc, #12]	@ (800151c <HAL_NVIC_EnableIRQ+0x18>)
 8001510:	0940      	lsrs	r0, r0, #5
 8001512:	408b      	lsls	r3, r1
 8001514:	f842 3020 	str.w	r3, [r2, r0, lsl #2]
  /* Check the parameters */
  assert_param(IS_NVIC_DEVICE_IRQ(IRQn));

  /* Enable interrupt */
  NVIC_EnableIRQ(IRQn);
}
 8001518:	4770      	bx	lr
 800151a:	bf00      	nop
 800151c:	e000e100 	.word	0xe000e100

08001520 <HAL_SYSTICK_Config>:
           function <b>SysTick_Config</b> is not included. In this case, the file <b><i>device</i>.h</b>
           must contain a vendor-specific implementation of this function.
 */
__STATIC_INLINE uint32_t SysTick_Config(uint32_t ticks)
{
  if ((ticks - 1UL) > SysTick_LOAD_RELOAD_Msk)
 8001520:	3801      	subs	r0, #1
 8001522:	f1b0 7f80 	cmp.w	r0, #16777216	@ 0x1000000
 8001526:	d301      	bcc.n	800152c <HAL_SYSTICK_Config+0xc>
  {
    return (1UL);                                                   /* Reload value impossible */
 8001528:	2001      	movs	r0, #1
  *                  - 1  Function failed.
  */
uint32_t HAL_SYSTICK_Config(uint32_t TicksNumb)
{
   return SysTick_Config(TicksNumb);
}
 800152a:	4770      	bx	lr
  }

  SysTick->LOAD  = (uint32_t)(ticks - 1UL);                         /* set reload register */
 800152c:	f04f 23e0 	mov.w	r3, #3758153728	@ 0xe000e000
    SCB->SHP[(((uint32_t)IRQn) & 0xFUL)-4UL] = (uint8_t)((priority << (8U - __NVIC_PRIO_BITS)) & (uint32_t)0xFFUL);
 8001530:	f04f 0cf0 	mov.w	ip, #240	@ 0xf0
  NVIC_SetPriority (SysTick_IRQn, (1UL << __NVIC_PRIO_BITS) - 1UL); /* set Priority for Systick Interrupt */
  SysTick->VAL   = 0UL;                                             /* Load the SysTick Counter Value */
 8001534:	2200      	movs	r2, #0
  SysTick->CTRL  = SysTick_CTRL_CLKSOURCE_Msk |
 8001536:	2107      	movs	r1, #7
{
 8001538:	b410      	push	{r4}
    SCB->SHP[(((uint32_t)IRQn) & 0xFUL)-4UL] = (uint8_t)((priority << (8U - __NVIC_PRIO_BITS)) & (uint32_t)0xFFUL);
 800153a:	4c04      	ldr	r4, [pc, #16]	@ (800154c <HAL_SYSTICK_Config+0x2c>)
  SysTick->LOAD  = (uint32_t)(ticks - 1UL);                         /* set reload register */
 800153c:	6158      	str	r0, [r3, #20]
    SCB->SHP[(((uint32_t)IRQn) & 0xFUL)-4UL] = (uint8_t)((priority << (8U - __NVIC_PRIO_BITS)) & (uint32_t)0xFFUL);
 800153e:	f884 c023 	strb.w	ip, [r4, #35]	@ 0x23
                   SysTick_CTRL_TICKINT_Msk   |
                   SysTick_CTRL_ENABLE_Msk;                         /* Enable SysTick IRQ and SysTick Timer */
  return (0UL);                                                     /* Function successful */
 8001542:	4610      	mov	r0, r2
  SysTick->VAL   = 0UL;                                             /* Load the SysTick Counter Value */
 8001544:	619a      	str	r2, [r3, #24]
}
 8001546:	bc10      	pop	{r4}
  SysTick->CTRL  = SysTick_CTRL_CLKSOURCE_Msk |
 8001548:	6119      	str	r1, [r3, #16]
 800154a:	4770      	bx	lr
 800154c:	e000ed00 	.word	0xe000ed00

08001550 <HAL_GPIO_Init>:
  * @param  GPIO_Init: pointer to a GPIO_InitTypeDef structure that contains
  *         the configuration information for the specified GPIO peripheral.
  * @retval None
  */
void HAL_GPIO_Init(GPIO_TypeDef  *GPIOx, GPIO_InitTypeDef *GPIO_Init)
{
 8001550:	e92d 4ff0 	stmdb	sp!, {r4, r5, r6, r7, r8, r9, sl, fp, lr}
  assert_param(IS_GPIO_ALL_INSTANCE(GPIOx));
  assert_param(IS_GPIO_PIN(GPIO_Init->Pin));
  assert_param(IS_GPIO_MODE(GPIO_Init->Mode));

  /* Configure the port pins */
  while (((GPIO_Init->Pin) >> position) != 0x00u)
 8001554:	680c      	ldr	r4, [r1, #0]
{
 8001556:	b085      	sub	sp, #20
  while (((GPIO_Init->Pin) >> position) != 0x00u)
 8001558:	2c00      	cmp	r4, #0
 800155a:	f000 80ad 	beq.w	80016b8 <HAL_GPIO_Init+0x168>
 800155e:	4bb3      	ldr	r3, [pc, #716]	@ (800182c <HAL_GPIO_Init+0x2dc>)
 8001560:	4298      	cmp	r0, r3
 8001562:	f000 80d7 	beq.w	8001714 <HAL_GPIO_Init+0x1c4>
 8001566:	2200      	movs	r2, #0
          break;
      }

      /* Check if the current bit belongs to first half or last half of the pin count number
       in order to address CRH or CRL register*/
      configregister = (iocurrent < GPIO_PIN_8) ? &GPIOx->CRL     : &GPIOx->CRH;
 8001568:	1d03      	adds	r3, r0, #4
 800156a:	9301      	str	r3, [sp, #4]
    ioposition = (0x01uL << position);
 800156c:	2501      	movs	r5, #1
      registeroffset = (iocurrent < GPIO_PIN_8) ? (position << 2u) : ((position - 8u) << 2u);

      /* Apply the new configuration of the pin to the register */
      MODIFY_REG((*configregister), ((GPIO_CRL_MODE0 | GPIO_CRL_CNF0) << registeroffset), (config << registeroffset));
 800156e:	270f      	movs	r7, #15
  uint32_t config = 0x00u;
 8001570:	4692      	mov	sl, r2
  uint32_t position = 0x00u;
 8001572:	4613      	mov	r3, r2
 8001574:	4683      	mov	fp, r0
      /*--------------------- EXTI Mode Configuration ------------------------*/
      /* Configure the External Interrupt or event for the current IO */
      if ((GPIO_Init->Mode & EXTI_MODE) == EXTI_MODE)
      {
        /* Enable AFIO Clock */
        __HAL_RCC_AFIO_CLK_ENABLE();
 8001576:	f8df 82b8 	ldr.w	r8, [pc, #696]	@ 8001830 <HAL_GPIO_Init+0x2e0>
 800157a:	e006      	b.n	800158a <HAL_GPIO_Init+0x3a>
          CLEAR_BIT(EXTI->IMR, iocurrent);
        }
      }
    }

	position++;
 800157c:	3301      	adds	r3, #1
  while (((GPIO_Init->Pin) >> position) != 0x00u)
 800157e:	fa34 f003 	lsrs.w	r0, r4, r3
 8001582:	f102 0204 	add.w	r2, r2, #4
 8001586:	f000 8097 	beq.w	80016b8 <HAL_GPIO_Init+0x168>
    ioposition = (0x01uL << position);
 800158a:	fa05 f003 	lsl.w	r0, r5, r3
    if (iocurrent == ioposition)
 800158e:	ea30 0c04 	bics.w	ip, r0, r4
    iocurrent = (uint32_t)(GPIO_Init->Pin) & ioposition;
 8001592:	ea00 0604 	and.w	r6, r0, r4
    if (iocurrent == ioposition)
 8001596:	d1f1      	bne.n	800157c <HAL_GPIO_Init+0x2c>
      switch (GPIO_Init->Mode)
 8001598:	684c      	ldr	r4, [r1, #4]
 800159a:	2c12      	cmp	r4, #18
 800159c:	f200 80a0 	bhi.w	80016e0 <HAL_GPIO_Init+0x190>
 80015a0:	2c12      	cmp	r4, #18
 80015a2:	d816      	bhi.n	80015d2 <HAL_GPIO_Init+0x82>
 80015a4:	e8df f014 	tbh	[pc, r4, lsl #1]
 80015a8:	001300af 	.word	0x001300af
 80015ac:	01950098 	.word	0x01950098
 80015b0:	00150015 	.word	0x00150015
 80015b4:	00150015 	.word	0x00150015
 80015b8:	00150015 	.word	0x00150015
 80015bc:	00150015 	.word	0x00150015
 80015c0:	00150015 	.word	0x00150015
 80015c4:	00150015 	.word	0x00150015
 80015c8:	00940015 	.word	0x00940015
 80015cc:	0090      	.short	0x0090
          config = GPIO_Init->Speed + GPIO_CR_CNF_GP_OUTPUT_PP;
 80015ce:	f8d1 a00c 	ldr.w	sl, [r1, #12]
      configregister = (iocurrent < GPIO_PIN_8) ? &GPIOx->CRL     : &GPIOx->CRH;
 80015d2:	2eff      	cmp	r6, #255	@ 0xff
 80015d4:	bf99      	ittee	ls
 80015d6:	465c      	movls	r4, fp
      registeroffset = (iocurrent < GPIO_PIN_8) ? (position << 2u) : ((position - 8u) << 2u);
 80015d8:	4694      	movls	ip, r2
      configregister = (iocurrent < GPIO_PIN_8) ? &GPIOx->CRL     : &GPIOx->CRH;
 80015da:	9c01      	ldrhi	r4, [sp, #4]
      registeroffset = (iocurrent < GPIO_PIN_8) ? (position << 2u) : ((position - 8u) << 2u);
 80015dc:	f1a2 0c20 	subhi.w	ip, r2, #32
      MODIFY_REG((*configregister), ((GPIO_CRL_MODE0 | GPIO_CRL_CNF0) << registeroffset), (config << registeroffset));
 80015e0:	6820      	ldr	r0, [r4, #0]
 80015e2:	fa07 fe0c 	lsl.w	lr, r7, ip
 80015e6:	ea20 000e 	bic.w	r0, r0, lr
 80015ea:	fa0a fc0c 	lsl.w	ip, sl, ip
 80015ee:	ea40 000c 	orr.w	r0, r0, ip
 80015f2:	6020      	str	r0, [r4, #0]
      if ((GPIO_Init->Mode & EXTI_MODE) == EXTI_MODE)
 80015f4:	684c      	ldr	r4, [r1, #4]
 80015f6:	00e0      	lsls	r0, r4, #3
 80015f8:	d564      	bpl.n	80016c4 <HAL_GPIO_Init+0x174>
        __HAL_RCC_AFIO_CLK_ENABLE();
 80015fa:	f8d8 0018 	ldr.w	r0, [r8, #24]
 80015fe:	f023 0c03 	bic.w	ip, r3, #3
 8001602:	f040 0001 	orr.w	r0, r0, #1
 8001606:	f8c8 0018 	str.w	r0, [r8, #24]
 800160a:	f8d8 0018 	ldr.w	r0, [r8, #24]
 800160e:	f10c 4c80 	add.w	ip, ip, #1073741824	@ 0x40000000
 8001612:	f000 0001 	and.w	r0, r0, #1
 8001616:	9003      	str	r0, [sp, #12]
 8001618:	f50c 3c80 	add.w	ip, ip, #65536	@ 0x10000
        CLEAR_BIT(temp, (0x0Fu) << (4u * (position & 0x03u)));
 800161c:	f003 0903 	and.w	r9, r3, #3
        __HAL_RCC_AFIO_CLK_ENABLE();
 8001620:	9803      	ldr	r0, [sp, #12]
        CLEAR_BIT(temp, (0x0Fu) << (4u * (position & 0x03u)));
 8001622:	ea4f 0989 	mov.w	r9, r9, lsl #2
        temp = AFIO->EXTICR[position >> 2u];
 8001626:	f8dc 0008 	ldr.w	r0, [ip, #8]
        CLEAR_BIT(temp, (0x0Fu) << (4u * (position & 0x03u)));
 800162a:	fa07 fe09 	lsl.w	lr, r7, r9
 800162e:	ea20 0e0e 	bic.w	lr, r0, lr
        SET_BIT(temp, (GPIO_GET_INDEX(GPIOx)) << (4u * (position & 0x03u)));
 8001632:	4880      	ldr	r0, [pc, #512]	@ (8001834 <HAL_GPIO_Init+0x2e4>)
 8001634:	4583      	cmp	fp, r0
 8001636:	f000 812c 	beq.w	8001892 <HAL_GPIO_Init+0x342>
 800163a:	487f      	ldr	r0, [pc, #508]	@ (8001838 <HAL_GPIO_Init+0x2e8>)
 800163c:	4583      	cmp	fp, r0
 800163e:	f000 8139 	beq.w	80018b4 <HAL_GPIO_Init+0x364>
 8001642:	487e      	ldr	r0, [pc, #504]	@ (800183c <HAL_GPIO_Init+0x2ec>)
 8001644:	4583      	cmp	fp, r0
 8001646:	bf0c      	ite	eq
 8001648:	2003      	moveq	r0, #3
 800164a:	2004      	movne	r0, #4
 800164c:	fa00 f009 	lsl.w	r0, r0, r9
 8001650:	ea40 000e 	orr.w	r0, r0, lr
        AFIO->EXTICR[position >> 2u] = temp;
 8001654:	f8cc 0008 	str.w	r0, [ip, #8]
          SET_BIT(EXTI->RTSR, iocurrent);
 8001658:	f8df c1e4 	ldr.w	ip, [pc, #484]	@ 8001840 <HAL_GPIO_Init+0x2f0>
        if ((GPIO_Init->Mode & RISING_EDGE) == RISING_EDGE)
 800165c:	f414 1f80 	tst.w	r4, #1048576	@ 0x100000
          SET_BIT(EXTI->RTSR, iocurrent);
 8001660:	f8dc 0008 	ldr.w	r0, [ip, #8]
 8001664:	bf14      	ite	ne
 8001666:	4330      	orrne	r0, r6
          CLEAR_BIT(EXTI->RTSR, iocurrent);
 8001668:	43b0      	biceq	r0, r6
 800166a:	f8cc 0008 	str.w	r0, [ip, #8]
          SET_BIT(EXTI->FTSR, iocurrent);
 800166e:	f8df c1d0 	ldr.w	ip, [pc, #464]	@ 8001840 <HAL_GPIO_Init+0x2f0>
        if ((GPIO_Init->Mode & FALLING_EDGE) == FALLING_EDGE)
 8001672:	f414 1f00 	tst.w	r4, #2097152	@ 0x200000
          SET_BIT(EXTI->FTSR, iocurrent);
 8001676:	f8dc 000c 	ldr.w	r0, [ip, #12]
 800167a:	bf14      	ite	ne
 800167c:	4330      	orrne	r0, r6
          CLEAR_BIT(EXTI->FTSR, iocurrent);
 800167e:	43b0      	biceq	r0, r6
 8001680:	f8cc 000c 	str.w	r0, [ip, #12]
          SET_BIT(EXTI->EMR, iocurrent);
 8001684:	f8df c1b8 	ldr.w	ip, [pc, #440]	@ 8001840 <HAL_GPIO_Init+0x2f0>
        if ((GPIO_Init->Mode & GPIO_MODE_EVT) == GPIO_MODE_EVT)
 8001688:	f414 3f00 	tst.w	r4, #131072	@ 0x20000
          SET_BIT(EXTI->EMR, iocurrent);
 800168c:	f8dc 0004 	ldr.w	r0, [ip, #4]
 8001690:	bf14      	ite	ne
 8001692:	4330      	orrne	r0, r6
          CLEAR_BIT(EXTI->EMR, iocurrent);
 8001694:	43b0      	biceq	r0, r6
        if ((GPIO_Init->Mode & GPIO_MODE_IT) == GPIO_MODE_IT)
 8001696:	f414 3f80 	tst.w	r4, #65536	@ 0x10000
          SET_BIT(EXTI->IMR, iocurrent);
 800169a:	4c69      	ldr	r4, [pc, #420]	@ (8001840 <HAL_GPIO_Init+0x2f0>)
          CLEAR_BIT(EXTI->EMR, iocurrent);
 800169c:	f8cc 0004 	str.w	r0, [ip, #4]
          SET_BIT(EXTI->IMR, iocurrent);
 80016a0:	6820      	ldr	r0, [r4, #0]
        if ((GPIO_Init->Mode & GPIO_MODE_IT) == GPIO_MODE_IT)
 80016a2:	d00c      	beq.n	80016be <HAL_GPIO_Init+0x16e>
          SET_BIT(EXTI->IMR, iocurrent);
 80016a4:	4330      	orrs	r0, r6
 80016a6:	6020      	str	r0, [r4, #0]
  while (((GPIO_Init->Pin) >> position) != 0x00u)
 80016a8:	680c      	ldr	r4, [r1, #0]
	position++;
 80016aa:	3301      	adds	r3, #1
  while (((GPIO_Init->Pin) >> position) != 0x00u)
 80016ac:	fa34 f003 	lsrs.w	r0, r4, r3
 80016b0:	f102 0204 	add.w	r2, r2, #4
 80016b4:	f47f af69 	bne.w	800158a <HAL_GPIO_Init+0x3a>
  }
}
 80016b8:	b005      	add	sp, #20
 80016ba:	e8bd 8ff0 	ldmia.w	sp!, {r4, r5, r6, r7, r8, r9, sl, fp, pc}
          CLEAR_BIT(EXTI->IMR, iocurrent);
 80016be:	ea20 0006 	bic.w	r0, r0, r6
 80016c2:	6020      	str	r0, [r4, #0]
  while (((GPIO_Init->Pin) >> position) != 0x00u)
 80016c4:	680c      	ldr	r4, [r1, #0]
 80016c6:	e759      	b.n	800157c <HAL_GPIO_Init+0x2c>
          config = GPIO_Init->Speed + GPIO_CR_CNF_AF_OUTPUT_OD;
 80016c8:	68c8      	ldr	r0, [r1, #12]
 80016ca:	f100 0a0c 	add.w	sl, r0, #12
          break;
 80016ce:	e780      	b.n	80015d2 <HAL_GPIO_Init+0x82>
          config = GPIO_Init->Speed + GPIO_CR_CNF_GP_OUTPUT_OD;
 80016d0:	68c8      	ldr	r0, [r1, #12]
 80016d2:	f100 0a04 	add.w	sl, r0, #4
          break;
 80016d6:	e77c      	b.n	80015d2 <HAL_GPIO_Init+0x82>
          config = GPIO_Init->Speed + GPIO_CR_CNF_AF_OUTPUT_PP;
 80016d8:	68c8      	ldr	r0, [r1, #12]
 80016da:	f100 0a08 	add.w	sl, r0, #8
          break;
 80016de:	e778      	b.n	80015d2 <HAL_GPIO_Init+0x82>
      switch (GPIO_Init->Mode)
 80016e0:	f8df c160 	ldr.w	ip, [pc, #352]	@ 8001844 <HAL_GPIO_Init+0x2f4>
 80016e4:	4564      	cmp	r4, ip
 80016e6:	d00e      	beq.n	8001706 <HAL_GPIO_Init+0x1b6>
 80016e8:	f200 80d9 	bhi.w	800189e <HAL_GPIO_Init+0x34e>
 80016ec:	f5ac 1c80 	sub.w	ip, ip, #1048576	@ 0x100000
 80016f0:	4564      	cmp	r4, ip
 80016f2:	d008      	beq.n	8001706 <HAL_GPIO_Init+0x1b6>
 80016f4:	f50c 2c70 	add.w	ip, ip, #983040	@ 0xf0000
 80016f8:	4564      	cmp	r4, ip
 80016fa:	d004      	beq.n	8001706 <HAL_GPIO_Init+0x1b6>
 80016fc:	f5ac 1c80 	sub.w	ip, ip, #1048576	@ 0x100000
 8001700:	4564      	cmp	r4, ip
 8001702:	f47f af66 	bne.w	80015d2 <HAL_GPIO_Init+0x82>
          if (GPIO_Init->Pull == GPIO_NOPULL)
 8001706:	688c      	ldr	r4, [r1, #8]
 8001708:	2c00      	cmp	r4, #0
 800170a:	f040 80d9 	bne.w	80018c0 <HAL_GPIO_Init+0x370>
            config = GPIO_CR_MODE_INPUT + GPIO_CR_CNF_INPUT_FLOATING;
 800170e:	f04f 0a04 	mov.w	sl, #4
 8001712:	e75e      	b.n	80015d2 <HAL_GPIO_Init+0x82>
  uint32_t config = 0x00u;
 8001714:	f04f 0900 	mov.w	r9, #0
  while (((GPIO_Init->Pin) >> position) != 0x00u)
 8001718:	f06f 051f 	mvn.w	r5, #31
    ioposition = (0x01uL << position);
 800171c:	2701      	movs	r7, #1
      MODIFY_REG((*configregister), ((GPIO_CRL_MODE0 | GPIO_CRL_CNF0) << registeroffset), (config << registeroffset));
 800171e:	f04f 0e0f 	mov.w	lr, #15
  uint32_t position = 0x00u;
 8001722:	464b      	mov	r3, r9
        __HAL_RCC_AFIO_CLK_ENABLE();
 8001724:	f8df c108 	ldr.w	ip, [pc, #264]	@ 8001830 <HAL_GPIO_Init+0x2e0>
      configregister = (iocurrent < GPIO_PIN_8) ? &GPIOx->CRL     : &GPIOx->CRH;
 8001728:	f8df 811c 	ldr.w	r8, [pc, #284]	@ 8001848 <HAL_GPIO_Init+0x2f8>
 800172c:	e005      	b.n	800173a <HAL_GPIO_Init+0x1ea>
	position++;
 800172e:	3301      	adds	r3, #1
  while (((GPIO_Init->Pin) >> position) != 0x00u)
 8001730:	fa34 f203 	lsrs.w	r2, r4, r3
 8001734:	f105 0504 	add.w	r5, r5, #4
 8001738:	d0be      	beq.n	80016b8 <HAL_GPIO_Init+0x168>
    ioposition = (0x01uL << position);
 800173a:	fa07 f203 	lsl.w	r2, r7, r3
    if (iocurrent == ioposition)
 800173e:	ea32 0a04 	bics.w	sl, r2, r4
    iocurrent = (uint32_t)(GPIO_Init->Pin) & ioposition;
 8001742:	ea04 0602 	and.w	r6, r4, r2
    if (iocurrent == ioposition)
 8001746:	d1f2      	bne.n	800172e <HAL_GPIO_Init+0x1de>
      switch (GPIO_Init->Mode)
 8001748:	684c      	ldr	r4, [r1, #4]
 800174a:	2c12      	cmp	r4, #18
 800174c:	f200 80c4 	bhi.w	80018d8 <HAL_GPIO_Init+0x388>
 8001750:	2c12      	cmp	r4, #18
 8001752:	d816      	bhi.n	8001782 <HAL_GPIO_Init+0x232>
 8001754:	e8df f014 	tbh	[pc, r4, lsl #1]
 8001758:	001300d2 	.word	0x001300d2
 800175c:	00f400df 	.word	0x00f400df
 8001760:	00150015 	.word	0x00150015
 8001764:	00150015 	.word	0x00150015
 8001768:	00150015 	.word	0x00150015
 800176c:	00150015 	.word	0x00150015
 8001770:	00150015 	.word	0x00150015
 8001774:	00150015 	.word	0x00150015
 8001778:	00e30015 	.word	0x00e30015
 800177c:	00db      	.short	0x00db
          config = GPIO_Init->Speed + GPIO_CR_CNF_GP_OUTPUT_PP;
 800177e:	f8d1 900c 	ldr.w	r9, [r1, #12]
      configregister = (iocurrent < GPIO_PIN_8) ? &GPIOx->CRL     : &GPIOx->CRH;
 8001782:	2eff      	cmp	r6, #255	@ 0xff
 8001784:	d962      	bls.n	800184c <HAL_GPIO_Init+0x2fc>
      registeroffset = (iocurrent < GPIO_PIN_8) ? (position << 2u) : ((position - 8u) << 2u);
 8001786:	46aa      	mov	sl, r5
      configregister = (iocurrent < GPIO_PIN_8) ? &GPIOx->CRL     : &GPIOx->CRH;
 8001788:	4644      	mov	r4, r8
      MODIFY_REG((*configregister), ((GPIO_CRL_MODE0 | GPIO_CRL_CNF0) << registeroffset), (config << registeroffset));
 800178a:	6822      	ldr	r2, [r4, #0]
 800178c:	fa0e fb0a 	lsl.w	fp, lr, sl
 8001790:	ea22 020b 	bic.w	r2, r2, fp
 8001794:	fa09 fa0a 	lsl.w	sl, r9, sl
 8001798:	ea42 020a 	orr.w	r2, r2, sl
 800179c:	6022      	str	r2, [r4, #0]
      if ((GPIO_Init->Mode & EXTI_MODE) == EXTI_MODE)
 800179e:	684a      	ldr	r2, [r1, #4]
 80017a0:	00d4      	lsls	r4, r2, #3
 80017a2:	d557      	bpl.n	8001854 <HAL_GPIO_Init+0x304>
        __HAL_RCC_AFIO_CLK_ENABLE();
 80017a4:	f8dc 4018 	ldr.w	r4, [ip, #24]
        CLEAR_BIT(temp, (0x0Fu) << (4u * (position & 0x03u)));
 80017a8:	f003 0a03 	and.w	sl, r3, #3
        __HAL_RCC_AFIO_CLK_ENABLE();
 80017ac:	f044 0401 	orr.w	r4, r4, #1
 80017b0:	f8cc 4018 	str.w	r4, [ip, #24]
 80017b4:	f8dc 4018 	ldr.w	r4, [ip, #24]
        CLEAR_BIT(temp, (0x0Fu) << (4u * (position & 0x03u)));
 80017b8:	ea4f 0a8a 	mov.w	sl, sl, lsl #2
        __HAL_RCC_AFIO_CLK_ENABLE();
 80017bc:	f004 0401 	and.w	r4, r4, #1
 80017c0:	9403      	str	r4, [sp, #12]
 80017c2:	9c03      	ldr	r4, [sp, #12]
        temp = AFIO->EXTICR[position >> 2u];
 80017c4:	f023 0403 	bic.w	r4, r3, #3
 80017c8:	f104 4480 	add.w	r4, r4, #1073741824	@ 0x40000000
 80017cc:	f504 3480 	add.w	r4, r4, #65536	@ 0x10000
 80017d0:	f8d4 b008 	ldr.w	fp, [r4, #8]
        CLEAR_BIT(temp, (0x0Fu) << (4u * (position & 0x03u)));
 80017d4:	fa0e fa0a 	lsl.w	sl, lr, sl
 80017d8:	ea2b 0a0a 	bic.w	sl, fp, sl
        AFIO->EXTICR[position >> 2u] = temp;
 80017dc:	f8c4 a008 	str.w	sl, [r4, #8]
        if ((GPIO_Init->Mode & RISING_EDGE) == RISING_EDGE)
 80017e0:	02d4      	lsls	r4, r2, #11
 80017e2:	d539      	bpl.n	8001858 <HAL_GPIO_Init+0x308>
          SET_BIT(EXTI->RTSR, iocurrent);
 80017e4:	f8df a058 	ldr.w	sl, [pc, #88]	@ 8001840 <HAL_GPIO_Init+0x2f0>
 80017e8:	f8da 4008 	ldr.w	r4, [sl, #8]
 80017ec:	4334      	orrs	r4, r6
 80017ee:	f8ca 4008 	str.w	r4, [sl, #8]
        if ((GPIO_Init->Mode & FALLING_EDGE) == FALLING_EDGE)
 80017f2:	0294      	lsls	r4, r2, #10
 80017f4:	d53a      	bpl.n	800186c <HAL_GPIO_Init+0x31c>
          SET_BIT(EXTI->FTSR, iocurrent);
 80017f6:	f8df a048 	ldr.w	sl, [pc, #72]	@ 8001840 <HAL_GPIO_Init+0x2f0>
 80017fa:	f8da 400c 	ldr.w	r4, [sl, #12]
 80017fe:	4334      	orrs	r4, r6
 8001800:	f8ca 400c 	str.w	r4, [sl, #12]
        if ((GPIO_Init->Mode & GPIO_MODE_EVT) == GPIO_MODE_EVT)
 8001804:	0394      	lsls	r4, r2, #14
 8001806:	d53b      	bpl.n	8001880 <HAL_GPIO_Init+0x330>
          SET_BIT(EXTI->EMR, iocurrent);
 8001808:	f8df a034 	ldr.w	sl, [pc, #52]	@ 8001840 <HAL_GPIO_Init+0x2f0>
 800180c:	f8da 4004 	ldr.w	r4, [sl, #4]
 8001810:	4334      	orrs	r4, r6
 8001812:	f8ca 4004 	str.w	r4, [sl, #4]
          SET_BIT(EXTI->IMR, iocurrent);
 8001816:	4c0a      	ldr	r4, [pc, #40]	@ (8001840 <HAL_GPIO_Init+0x2f0>)
        if ((GPIO_Init->Mode & GPIO_MODE_IT) == GPIO_MODE_IT)
 8001818:	f412 3f80 	tst.w	r2, #65536	@ 0x10000
          SET_BIT(EXTI->IMR, iocurrent);
 800181c:	6822      	ldr	r2, [r4, #0]
          CLEAR_BIT(EXTI->IMR, iocurrent);
 800181e:	bf0c      	ite	eq
 8001820:	43b2      	biceq	r2, r6
          SET_BIT(EXTI->IMR, iocurrent);
 8001822:	4332      	orrne	r2, r6
 8001824:	6022      	str	r2, [r4, #0]
  while (((GPIO_Init->Pin) >> position) != 0x00u)
 8001826:	680c      	ldr	r4, [r1, #0]
 8001828:	e781      	b.n	800172e <HAL_GPIO_Init+0x1de>
 800182a:	bf00      	nop
 800182c:	40010800 	.word	0x40010800
 8001830:	40021000 	.word	0x40021000
 8001834:	40010c00 	.word	0x40010c00
 8001838:	40011000 	.word	0x40011000
 800183c:	40011400 	.word	0x40011400
 8001840:	40010400 	.word	0x40010400
 8001844:	10220000 	.word	0x10220000
 8001848:	40010804 	.word	0x40010804
      configregister = (iocurrent < GPIO_PIN_8) ? &GPIOx->CRL     : &GPIOx->CRH;
 800184c:	4604      	mov	r4, r0
 800184e:	ea4f 0a83 	mov.w	sl, r3, lsl #2
 8001852:	e79a      	b.n	800178a <HAL_GPIO_Init+0x23a>
  while (((GPIO_Init->Pin) >> position) != 0x00u)
 8001854:	680c      	ldr	r4, [r1, #0]
 8001856:	e76a      	b.n	800172e <HAL_GPIO_Init+0x1de>
          CLEAR_BIT(EXTI->RTSR, iocurrent);
 8001858:	f8df a0f0 	ldr.w	sl, [pc, #240]	@ 800194c <HAL_GPIO_Init+0x3fc>
 800185c:	f8da 4008 	ldr.w	r4, [sl, #8]
 8001860:	ea24 0406 	bic.w	r4, r4, r6
 8001864:	f8ca 4008 	str.w	r4, [sl, #8]
        if ((GPIO_Init->Mode & FALLING_EDGE) == FALLING_EDGE)
 8001868:	0294      	lsls	r4, r2, #10
 800186a:	d4c4      	bmi.n	80017f6 <HAL_GPIO_Init+0x2a6>
          CLEAR_BIT(EXTI->FTSR, iocurrent);
 800186c:	f8df a0dc 	ldr.w	sl, [pc, #220]	@ 800194c <HAL_GPIO_Init+0x3fc>
 8001870:	f8da 400c 	ldr.w	r4, [sl, #12]
 8001874:	ea24 0406 	bic.w	r4, r4, r6
 8001878:	f8ca 400c 	str.w	r4, [sl, #12]
        if ((GPIO_Init->Mode & GPIO_MODE_EVT) == GPIO_MODE_EVT)
 800187c:	0394      	lsls	r4, r2, #14
 800187e:	d4c3      	bmi.n	8001808 <HAL_GPIO_Init+0x2b8>
          CLEAR_BIT(EXTI->EMR, iocurrent);
 8001880:	f8df a0c8 	ldr.w	sl, [pc, #200]	@ 800194c <HAL_GPIO_Init+0x3fc>
 8001884:	f8da 4004 	ldr.w	r4, [sl, #4]
 8001888:	ea24 0406 	bic.w	r4, r4, r6
 800188c:	f8ca 4004 	str.w	r4, [sl, #4]
 8001890:	e7c1      	b.n	8001816 <HAL_GPIO_Init+0x2c6>
        SET_BIT(temp, (GPIO_GET_INDEX(GPIOx)) << (4u * (position & 0x03u)));
 8001892:	2001      	movs	r0, #1
 8001894:	fa00 f009 	lsl.w	r0, r0, r9
 8001898:	ea40 000e 	orr.w	r0, r0, lr
 800189c:	e6da      	b.n	8001654 <HAL_GPIO_Init+0x104>
      switch (GPIO_Init->Mode)
 800189e:	f8df c0b0 	ldr.w	ip, [pc, #176]	@ 8001950 <HAL_GPIO_Init+0x400>
 80018a2:	4564      	cmp	r4, ip
 80018a4:	f43f af2f 	beq.w	8001706 <HAL_GPIO_Init+0x1b6>
 80018a8:	f50c 3c80 	add.w	ip, ip, #65536	@ 0x10000
 80018ac:	4564      	cmp	r4, ip
 80018ae:	f47f ae90 	bne.w	80015d2 <HAL_GPIO_Init+0x82>
 80018b2:	e728      	b.n	8001706 <HAL_GPIO_Init+0x1b6>
        SET_BIT(temp, (GPIO_GET_INDEX(GPIOx)) << (4u * (position & 0x03u)));
 80018b4:	2002      	movs	r0, #2
 80018b6:	fa00 f009 	lsl.w	r0, r0, r9
 80018ba:	ea40 000e 	orr.w	r0, r0, lr
 80018be:	e6c9      	b.n	8001654 <HAL_GPIO_Init+0x104>
          else if (GPIO_Init->Pull == GPIO_PULLUP)
 80018c0:	2c01      	cmp	r4, #1
            config = GPIO_CR_MODE_INPUT + GPIO_CR_CNF_INPUT_PU_PD;
 80018c2:	f04f 0a08 	mov.w	sl, #8
            GPIOx->BSRR = ioposition;
 80018c6:	bf0c      	ite	eq
 80018c8:	f8cb 0010 	streq.w	r0, [fp, #16]
            GPIOx->BRR = ioposition;
 80018cc:	f8cb 0014 	strne.w	r0, [fp, #20]
 80018d0:	e67f      	b.n	80015d2 <HAL_GPIO_Init+0x82>
      switch (GPIO_Init->Mode)
 80018d2:	f04f 0a00 	mov.w	sl, #0
 80018d6:	e67c      	b.n	80015d2 <HAL_GPIO_Init+0x82>
 80018d8:	f8df a078 	ldr.w	sl, [pc, #120]	@ 8001954 <HAL_GPIO_Init+0x404>
 80018dc:	4554      	cmp	r4, sl
 80018de:	d00d      	beq.n	80018fc <HAL_GPIO_Init+0x3ac>
 80018e0:	d821      	bhi.n	8001926 <HAL_GPIO_Init+0x3d6>
 80018e2:	f5aa 1a80 	sub.w	sl, sl, #1048576	@ 0x100000
 80018e6:	4554      	cmp	r4, sl
 80018e8:	d008      	beq.n	80018fc <HAL_GPIO_Init+0x3ac>
 80018ea:	f50a 2a70 	add.w	sl, sl, #983040	@ 0xf0000
 80018ee:	4554      	cmp	r4, sl
 80018f0:	d004      	beq.n	80018fc <HAL_GPIO_Init+0x3ac>
 80018f2:	f5aa 1a80 	sub.w	sl, sl, #1048576	@ 0x100000
 80018f6:	4554      	cmp	r4, sl
 80018f8:	f47f af43 	bne.w	8001782 <HAL_GPIO_Init+0x232>
          if (GPIO_Init->Pull == GPIO_NOPULL)
 80018fc:	688c      	ldr	r4, [r1, #8]
 80018fe:	b1e4      	cbz	r4, 800193a <HAL_GPIO_Init+0x3ea>
          else if (GPIO_Init->Pull == GPIO_PULLUP)
 8001900:	2c01      	cmp	r4, #1
            GPIOx->BSRR = ioposition;
 8001902:	4c15      	ldr	r4, [pc, #84]	@ (8001958 <HAL_GPIO_Init+0x408>)
          else if (GPIO_Init->Pull == GPIO_PULLUP)
 8001904:	d01f      	beq.n	8001946 <HAL_GPIO_Init+0x3f6>
            GPIOx->BRR = ioposition;
 8001906:	6162      	str	r2, [r4, #20]
            config = GPIO_CR_MODE_INPUT + GPIO_CR_CNF_INPUT_PU_PD;
 8001908:	f04f 0908 	mov.w	r9, #8
 800190c:	e739      	b.n	8001782 <HAL_GPIO_Init+0x232>
          config = GPIO_Init->Speed + GPIO_CR_CNF_AF_OUTPUT_OD;
 800190e:	68ca      	ldr	r2, [r1, #12]
 8001910:	f102 090c 	add.w	r9, r2, #12
          break;
 8001914:	e735      	b.n	8001782 <HAL_GPIO_Init+0x232>
          config = GPIO_Init->Speed + GPIO_CR_CNF_AF_OUTPUT_PP;
 8001916:	68ca      	ldr	r2, [r1, #12]
 8001918:	f102 0908 	add.w	r9, r2, #8
          break;
 800191c:	e731      	b.n	8001782 <HAL_GPIO_Init+0x232>
          config = GPIO_Init->Speed + GPIO_CR_CNF_GP_OUTPUT_OD;
 800191e:	68ca      	ldr	r2, [r1, #12]
 8001920:	f102 0904 	add.w	r9, r2, #4
          break;
 8001924:	e72d      	b.n	8001782 <HAL_GPIO_Init+0x232>
      switch (GPIO_Init->Mode)
 8001926:	f8df a028 	ldr.w	sl, [pc, #40]	@ 8001950 <HAL_GPIO_Init+0x400>
 800192a:	4554      	cmp	r4, sl
 800192c:	d0e6      	beq.n	80018fc <HAL_GPIO_Init+0x3ac>
 800192e:	f50a 3a80 	add.w	sl, sl, #65536	@ 0x10000
 8001932:	4554      	cmp	r4, sl
 8001934:	f47f af25 	bne.w	8001782 <HAL_GPIO_Init+0x232>
 8001938:	e7e0      	b.n	80018fc <HAL_GPIO_Init+0x3ac>
            config = GPIO_CR_MODE_INPUT + GPIO_CR_CNF_INPUT_FLOATING;
 800193a:	f04f 0904 	mov.w	r9, #4
 800193e:	e720      	b.n	8001782 <HAL_GPIO_Init+0x232>
          config = GPIO_CR_MODE_INPUT + GPIO_CR_CNF_ANALOG;
 8001940:	f04f 0900 	mov.w	r9, #0
 8001944:	e71d      	b.n	8001782 <HAL_GPIO_Init+0x232>
            GPIOx->BSRR = ioposition;
 8001946:	6122      	str	r2, [r4, #16]
 8001948:	e7de      	b.n	8001908 <HAL_GPIO_Init+0x3b8>
 800194a:	bf00      	nop
 800194c:	40010400 	.word	0x40010400
 8001950:	10310000 	.word	0x10310000
 8001954:	10220000 	.word	0x10220000
 8001958:	40010800 	.word	0x40010800

0800195c <HAL_GPIO_EXTI_Callback>:
  /* Prevent unused argument(s) compilation warning */
  UNUSED(GPIO_Pin);
  /* NOTE: This function Should not be modified, when the callback is needed,
           the HAL_GPIO_EXTI_Callback could be implemented in the user file
   */
}
 800195c:	4770      	bx	lr
 800195e:	bf00      	nop

08001960 <HAL_GPIO_EXTI_IRQHandler>:
  if (__HAL_GPIO_EXTI_GET_IT(GPIO_Pin) != 0x00u)
 8001960:	4a04      	ldr	r2, [pc, #16]	@ (8001974 <HAL_GPIO_EXTI_IRQHandler+0x14>)
 8001962:	6951      	ldr	r1, [r2, #20]
 8001964:	4201      	tst	r1, r0
 8001966:	d100      	bne.n	800196a <HAL_GPIO_EXTI_IRQHandler+0xa>
 8001968:	4770      	bx	lr
{
 800196a:	b508      	push	{r3, lr}
    __HAL_GPIO_EXTI_CLEAR_IT(GPIO_Pin);
 800196c:	6150      	str	r0, [r2, #20]
    HAL_GPIO_EXTI_Callback(GPIO_Pin);
 800196e:	f7ff fff5 	bl	800195c <HAL_GPIO_EXTI_Callback>
}
 8001972:	bd08      	pop	{r3, pc}
 8001974:	40010400 	.word	0x40010400

08001978 <HAL_RCC_OscConfig>:
{
  uint32_t tickstart;
  uint32_t pll_config;

  /* Check Null pointer */
  if (RCC_OscInitStruct == NULL)
 8001978:	2800      	cmp	r0, #0
 800197a:	f000 81e4 	beq.w	8001d46 <HAL_RCC_OscConfig+0x3ce>
{
 800197e:	e92d 41f0 	stmdb	sp!, {r4, r5, r6, r7, r8, lr}

  /* Check the parameters */
  assert_param(IS_RCC_OSCILLATORTYPE(RCC_OscInitStruct->OscillatorType));

  /*------------------------------- HSE Configuration ------------------------*/
  if (((RCC_OscInitStruct->OscillatorType) & RCC_OSCILLATORTYPE_HSE) == RCC_OSCILLATORTYPE_HSE)
 8001982:	6803      	ldr	r3, [r0, #0]
 8001984:	4604      	mov	r4, r0
 8001986:	07dd      	lsls	r5, r3, #31
{
 8001988:	b082      	sub	sp, #8
  if (((RCC_OscInitStruct->OscillatorType) & RCC_OSCILLATORTYPE_HSE) == RCC_OSCILLATORTYPE_HSE)
 800198a:	d535      	bpl.n	80019f8 <HAL_RCC_OscConfig+0x80>
  {
    /* Check the parameters */
    assert_param(IS_RCC_HSE(RCC_OscInitStruct->HSEState));

    /* When the HSE is used as system clock or clock source for PLL in these cases it is not allowed to be disabled */
    if ((__HAL_RCC_GET_SYSCLK_SOURCE() == RCC_SYSCLKSOURCE_STATUS_HSE)
 800198c:	4999      	ldr	r1, [pc, #612]	@ (8001bf4 <HAL_RCC_OscConfig+0x27c>)
 800198e:	684a      	ldr	r2, [r1, #4]
 8001990:	f002 020c 	and.w	r2, r2, #12
 8001994:	2a04      	cmp	r2, #4
 8001996:	f000 80ed 	beq.w	8001b74 <HAL_RCC_OscConfig+0x1fc>
        || ((__HAL_RCC_GET_SYSCLK_SOURCE() == RCC_SYSCLKSOURCE_STATUS_PLLCLK) && (__HAL_RCC_GET_PLL_OSCSOURCE() == RCC_PLLSOURCE_HSE)))
 800199a:	684a      	ldr	r2, [r1, #4]
 800199c:	f002 020c 	and.w	r2, r2, #12
 80019a0:	2a08      	cmp	r2, #8
 80019a2:	f000 80e3 	beq.w	8001b6c <HAL_RCC_OscConfig+0x1f4>
      }
    }
    else
    {
      /* Set the new HSE configuration ---------------------------------------*/
      __HAL_RCC_HSE_CONFIG(RCC_OscInitStruct->HSEState);
 80019a6:	6863      	ldr	r3, [r4, #4]
 80019a8:	f5b3 3f80 	cmp.w	r3, #65536	@ 0x10000
 80019ac:	d010      	beq.n	80019d0 <HAL_RCC_OscConfig+0x58>
 80019ae:	2b00      	cmp	r3, #0
 80019b0:	f000 810a 	beq.w	8001bc8 <HAL_RCC_OscConfig+0x250>
 80019b4:	f5b3 2fa0 	cmp.w	r3, #327680	@ 0x50000
 80019b8:	f000 8180 	beq.w	8001cbc <HAL_RCC_OscConfig+0x344>
 80019bc:	4b8d      	ldr	r3, [pc, #564]	@ (8001bf4 <HAL_RCC_OscConfig+0x27c>)
 80019be:	681a      	ldr	r2, [r3, #0]
 80019c0:	f422 3280 	bic.w	r2, r2, #65536	@ 0x10000
 80019c4:	601a      	str	r2, [r3, #0]
 80019c6:	681a      	ldr	r2, [r3, #0]
 80019c8:	f422 2280 	bic.w	r2, r2, #262144	@ 0x40000
 80019cc:	601a      	str	r2, [r3, #0]


      /* Check the HSE State */
      if (RCC_OscInitStruct->HSEState != RCC_HSE_OFF)
 80019ce:	e004      	b.n	80019da <HAL_RCC_OscConfig+0x62>
      __HAL_RCC_HSE_CONFIG(RCC_OscInitStruct->HSEState);
 80019d0:	4a88      	ldr	r2, [pc, #544]	@ (8001bf4 <HAL_RCC_OscConfig+0x27c>)
 80019d2:	6813      	ldr	r3, [r2, #0]
 80019d4:	f443 3380 	orr.w	r3, r3, #65536	@ 0x10000
 80019d8:	6013      	str	r3, [r2, #0]
      {
        /* Get Start Tick */
        tickstart = HAL_GetTick();
 80019da:	f7ff fd2d 	bl	8001438 <HAL_GetTick>

        /* Wait till HSE is ready */
        while (__HAL_RCC_GET_FLAG(RCC_FLAG_HSERDY) == RESET)
 80019de:	4e85      	ldr	r6, [pc, #532]	@ (8001bf4 <HAL_RCC_OscConfig+0x27c>)
        tickstart = HAL_GetTick();
 80019e0:	4605      	mov	r5, r0
        while (__HAL_RCC_GET_FLAG(RCC_FLAG_HSERDY) == RESET)
 80019e2:	e005      	b.n	80019f0 <HAL_RCC_OscConfig+0x78>
        {
          if ((HAL_GetTick() - tickstart) > HSE_TIMEOUT_VALUE)
 80019e4:	f7ff fd28 	bl	8001438 <HAL_GetTick>
 80019e8:	1b40      	subs	r0, r0, r5
 80019ea:	2864      	cmp	r0, #100	@ 0x64
 80019ec:	f200 80e8 	bhi.w	8001bc0 <HAL_RCC_OscConfig+0x248>
        while (__HAL_RCC_GET_FLAG(RCC_FLAG_HSERDY) == RESET)
 80019f0:	6833      	ldr	r3, [r6, #0]
 80019f2:	039a      	lsls	r2, r3, #14
 80019f4:	d5f6      	bpl.n	80019e4 <HAL_RCC_OscConfig+0x6c>
        }
      }
    }
  }
  /*----------------------------- HSI Configuration --------------------------*/
  if (((RCC_OscInitStruct->OscillatorType) & RCC_OSCILLATORTYPE_HSI) == RCC_OSCILLATORTYPE_HSI)
 80019f6:	6823      	ldr	r3, [r4, #0]
 80019f8:	079f      	lsls	r7, r3, #30
 80019fa:	d528      	bpl.n	8001a4e <HAL_RCC_OscConfig+0xd6>
    /* Check the parameters */
    assert_param(IS_RCC_HSI(RCC_OscInitStruct->HSIState));
    assert_param(IS_RCC_CALIBRATION_VALUE(RCC_OscInitStruct->HSICalibrationValue));

    /* Check if HSI is used as system clock or as PLL source when PLL is selected as system clock */
    if ((__HAL_RCC_GET_SYSCLK_SOURCE() == RCC_SYSCLKSOURCE_STATUS_HSI)
 80019fc:	4a7d      	ldr	r2, [pc, #500]	@ (8001bf4 <HAL_RCC_OscConfig+0x27c>)
 80019fe:	6851      	ldr	r1, [r2, #4]
 8001a00:	f011 0f0c 	tst.w	r1, #12
 8001a04:	f000 8096 	beq.w	8001b34 <HAL_RCC_OscConfig+0x1bc>
        || ((__HAL_RCC_GET_SYSCLK_SOURCE() == RCC_SYSCLKSOURCE_STATUS_PLLCLK) && (__HAL_RCC_GET_PLL_OSCSOURCE() == RCC_PLLSOURCE_HSI_DIV2)))
 8001a08:	6851      	ldr	r1, [r2, #4]
 8001a0a:	f001 010c 	and.w	r1, r1, #12
 8001a0e:	2908      	cmp	r1, #8
 8001a10:	f000 808c 	beq.w	8001b2c <HAL_RCC_OscConfig+0x1b4>
      }
    }
    else
    {
      /* Check the HSI State */
      if (RCC_OscInitStruct->HSIState != RCC_HSI_OFF)
 8001a14:	6923      	ldr	r3, [r4, #16]
 8001a16:	2b00      	cmp	r3, #0
 8001a18:	f000 8116 	beq.w	8001c48 <HAL_RCC_OscConfig+0x2d0>
      {
        /* Enable the Internal High Speed oscillator (HSI). */
        __HAL_RCC_HSI_ENABLE();
 8001a1c:	2201      	movs	r2, #1
 8001a1e:	4b76      	ldr	r3, [pc, #472]	@ (8001bf8 <HAL_RCC_OscConfig+0x280>)

        /* Get Start Tick */
        tickstart = HAL_GetTick();

        /* Wait till HSI is ready */
        while (__HAL_RCC_GET_FLAG(RCC_FLAG_HSIRDY) == RESET)
 8001a20:	4e74      	ldr	r6, [pc, #464]	@ (8001bf4 <HAL_RCC_OscConfig+0x27c>)
        __HAL_RCC_HSI_ENABLE();
 8001a22:	601a      	str	r2, [r3, #0]
        tickstart = HAL_GetTick();
 8001a24:	f7ff fd08 	bl	8001438 <HAL_GetTick>
 8001a28:	4605      	mov	r5, r0
        while (__HAL_RCC_GET_FLAG(RCC_FLAG_HSIRDY) == RESET)
 8001a2a:	e005      	b.n	8001a38 <HAL_RCC_OscConfig+0xc0>
        {
          if ((HAL_GetTick() - tickstart) > HSI_TIMEOUT_VALUE)
 8001a2c:	f7ff fd04 	bl	8001438 <HAL_GetTick>
 8001a30:	1b40      	subs	r0, r0, r5
 8001a32:	2802      	cmp	r0, #2
 8001a34:	f200 80c4 	bhi.w	8001bc0 <HAL_RCC_OscConfig+0x248>
        while (__HAL_RCC_GET_FLAG(RCC_FLAG_HSIRDY) == RESET)
 8001a38:	6833      	ldr	r3, [r6, #0]
 8001a3a:	0798      	lsls	r0, r3, #30
 8001a3c:	d5f6      	bpl.n	8001a2c <HAL_RCC_OscConfig+0xb4>
            return HAL_TIMEOUT;
          }
        }

        /* Adjusts the Internal High Speed oscillator (HSI) calibration value.*/
        __HAL_RCC_HSI_CALIBRATIONVALUE_ADJUST(RCC_OscInitStruct->HSICalibrationValue);
 8001a3e:	6833      	ldr	r3, [r6, #0]
 8001a40:	6962      	ldr	r2, [r4, #20]
 8001a42:	f023 03f8 	bic.w	r3, r3, #248	@ 0xf8
 8001a46:	ea43 03c2 	orr.w	r3, r3, r2, lsl #3
 8001a4a:	6033      	str	r3, [r6, #0]
        }
      }
    }
  }
  /*------------------------------ LSI Configuration -------------------------*/
  if (((RCC_OscInitStruct->OscillatorType) & RCC_OSCILLATORTYPE_LSI) == RCC_OSCILLATORTYPE_LSI)
 8001a4c:	6823      	ldr	r3, [r4, #0]
 8001a4e:	071a      	lsls	r2, r3, #28
 8001a50:	d429      	bmi.n	8001aa6 <HAL_RCC_OscConfig+0x12e>
        }
      }
    }
  }
  /*------------------------------ LSE Configuration -------------------------*/
  if (((RCC_OscInitStruct->OscillatorType) & RCC_OSCILLATORTYPE_LSE) == RCC_OSCILLATORTYPE_LSE)
 8001a52:	075d      	lsls	r5, r3, #29
 8001a54:	d54b      	bpl.n	8001aee <HAL_RCC_OscConfig+0x176>
    /* Check the parameters */
    assert_param(IS_RCC_LSE(RCC_OscInitStruct->LSEState));

    /* Update LSE configuration in Backup Domain control register    */
    /* Requires to enable write access to Backup Domain of necessary */
    if (__HAL_RCC_PWR_IS_CLK_DISABLED())
 8001a56:	4b67      	ldr	r3, [pc, #412]	@ (8001bf4 <HAL_RCC_OscConfig+0x27c>)
 8001a58:	69da      	ldr	r2, [r3, #28]
 8001a5a:	00d0      	lsls	r0, r2, #3
 8001a5c:	f100 8084 	bmi.w	8001b68 <HAL_RCC_OscConfig+0x1f0>
    {
      __HAL_RCC_PWR_CLK_ENABLE();
      pwrclkchanged = SET;
 8001a60:	2501      	movs	r5, #1
      __HAL_RCC_PWR_CLK_ENABLE();
 8001a62:	69da      	ldr	r2, [r3, #28]
 8001a64:	f042 5280 	orr.w	r2, r2, #268435456	@ 0x10000000
 8001a68:	61da      	str	r2, [r3, #28]
 8001a6a:	69db      	ldr	r3, [r3, #28]
 8001a6c:	f003 5380 	and.w	r3, r3, #268435456	@ 0x10000000
 8001a70:	9300      	str	r3, [sp, #0]
 8001a72:	9b00      	ldr	r3, [sp, #0]
    }

    if (HAL_IS_BIT_CLR(PWR->CR, PWR_CR_DBP))
 8001a74:	4e61      	ldr	r6, [pc, #388]	@ (8001bfc <HAL_RCC_OscConfig+0x284>)
 8001a76:	6833      	ldr	r3, [r6, #0]
 8001a78:	05d9      	lsls	r1, r3, #23
 8001a7a:	f140 8091 	bpl.w	8001ba0 <HAL_RCC_OscConfig+0x228>
        }
      }
    }

    /* Set the new LSE configuration -----------------------------------------*/
    __HAL_RCC_LSE_CONFIG(RCC_OscInitStruct->LSEState);
 8001a7e:	68e3      	ldr	r3, [r4, #12]
 8001a80:	2b01      	cmp	r3, #1
 8001a82:	f000 80f2 	beq.w	8001c6a <HAL_RCC_OscConfig+0x2f2>
 8001a86:	2b00      	cmp	r3, #0
 8001a88:	f000 80be 	beq.w	8001c08 <HAL_RCC_OscConfig+0x290>
 8001a8c:	2b05      	cmp	r3, #5
 8001a8e:	4b59      	ldr	r3, [pc, #356]	@ (8001bf4 <HAL_RCC_OscConfig+0x27c>)
 8001a90:	6a1a      	ldr	r2, [r3, #32]
 8001a92:	f000 8120 	beq.w	8001cd6 <HAL_RCC_OscConfig+0x35e>
 8001a96:	f022 0201 	bic.w	r2, r2, #1
 8001a9a:	621a      	str	r2, [r3, #32]
 8001a9c:	6a1a      	ldr	r2, [r3, #32]
 8001a9e:	f022 0204 	bic.w	r2, r2, #4
 8001aa2:	621a      	str	r2, [r3, #32]
    /* Check the LSE State */
    if (RCC_OscInitStruct->LSEState != RCC_LSE_OFF)
 8001aa4:	e0e6      	b.n	8001c74 <HAL_RCC_OscConfig+0x2fc>
    if (RCC_OscInitStruct->LSIState != RCC_LSI_OFF)
 8001aa6:	69a3      	ldr	r3, [r4, #24]
 8001aa8:	2b00      	cmp	r3, #0
 8001aaa:	d04c      	beq.n	8001b46 <HAL_RCC_OscConfig+0x1ce>
      __HAL_RCC_LSI_ENABLE();
 8001aac:	2201      	movs	r2, #1
 8001aae:	4b52      	ldr	r3, [pc, #328]	@ (8001bf8 <HAL_RCC_OscConfig+0x280>)
      while (__HAL_RCC_GET_FLAG(RCC_FLAG_LSIRDY) == RESET)
 8001ab0:	4e50      	ldr	r6, [pc, #320]	@ (8001bf4 <HAL_RCC_OscConfig+0x27c>)
      __HAL_RCC_LSI_ENABLE();
 8001ab2:	f8c3 2480 	str.w	r2, [r3, #1152]	@ 0x480
      tickstart = HAL_GetTick();
 8001ab6:	f7ff fcbf 	bl	8001438 <HAL_GetTick>
 8001aba:	4605      	mov	r5, r0
      while (__HAL_RCC_GET_FLAG(RCC_FLAG_LSIRDY) == RESET)
 8001abc:	e004      	b.n	8001ac8 <HAL_RCC_OscConfig+0x150>
        if ((HAL_GetTick() - tickstart) > LSI_TIMEOUT_VALUE)
 8001abe:	f7ff fcbb 	bl	8001438 <HAL_GetTick>
 8001ac2:	1b40      	subs	r0, r0, r5
 8001ac4:	2802      	cmp	r0, #2
 8001ac6:	d87b      	bhi.n	8001bc0 <HAL_RCC_OscConfig+0x248>
      while (__HAL_RCC_GET_FLAG(RCC_FLAG_LSIRDY) == RESET)
 8001ac8:	6a73      	ldr	r3, [r6, #36]	@ 0x24
 8001aca:	079b      	lsls	r3, r3, #30
 8001acc:	d5f7      	bpl.n	8001abe <HAL_RCC_OscConfig+0x146>
  * @param  mdelay: specifies the delay time length, in milliseconds.
  * @retval None
  */
static void RCC_Delay(uint32_t mdelay)
{
  __IO uint32_t Delay = mdelay * (SystemCoreClock / 8U / 1000U);
 8001ace:	4b4c      	ldr	r3, [pc, #304]	@ (8001c00 <HAL_RCC_OscConfig+0x288>)
 8001ad0:	4a4c      	ldr	r2, [pc, #304]	@ (8001c04 <HAL_RCC_OscConfig+0x28c>)
 8001ad2:	681b      	ldr	r3, [r3, #0]
 8001ad4:	fba2 2303 	umull	r2, r3, r2, r3
 8001ad8:	0a5b      	lsrs	r3, r3, #9
 8001ada:	9301      	str	r3, [sp, #4]
  do
  {
    __NOP();
 8001adc:	bf00      	nop
  }
  while (Delay --);
 8001ade:	9b01      	ldr	r3, [sp, #4]
 8001ae0:	1e5a      	subs	r2, r3, #1
 8001ae2:	9201      	str	r2, [sp, #4]
 8001ae4:	2b00      	cmp	r3, #0
 8001ae6:	d1f9      	bne.n	8001adc <HAL_RCC_OscConfig+0x164>
  if (((RCC_OscInitStruct->OscillatorType) & RCC_OSCILLATORTYPE_LSE) == RCC_OSCILLATORTYPE_LSE)
 8001ae8:	6823      	ldr	r3, [r4, #0]
 8001aea:	075d      	lsls	r5, r3, #29
 8001aec:	d4b3      	bmi.n	8001a56 <HAL_RCC_OscConfig+0xde>
  if ((RCC_OscInitStruct->PLL.PLLState) != RCC_PLL_NONE)
 8001aee:	69e3      	ldr	r3, [r4, #28]
 8001af0:	b1c3      	cbz	r3, 8001b24 <HAL_RCC_OscConfig+0x1ac>
    if (__HAL_RCC_GET_SYSCLK_SOURCE() != RCC_SYSCLKSOURCE_STATUS_PLLCLK)
 8001af2:	4d40      	ldr	r5, [pc, #256]	@ (8001bf4 <HAL_RCC_OscConfig+0x27c>)
 8001af4:	686a      	ldr	r2, [r5, #4]
 8001af6:	f002 020c 	and.w	r2, r2, #12
 8001afa:	2a08      	cmp	r2, #8
 8001afc:	f000 80cd 	beq.w	8001c9a <HAL_RCC_OscConfig+0x322>
        __HAL_RCC_PLL_DISABLE();
 8001b00:	2200      	movs	r2, #0
      if ((RCC_OscInitStruct->PLL.PLLState) == RCC_PLL_ON)
 8001b02:	2b02      	cmp	r3, #2
        __HAL_RCC_PLL_DISABLE();
 8001b04:	4b3c      	ldr	r3, [pc, #240]	@ (8001bf8 <HAL_RCC_OscConfig+0x280>)
 8001b06:	661a      	str	r2, [r3, #96]	@ 0x60
      if ((RCC_OscInitStruct->PLL.PLLState) == RCC_PLL_ON)
 8001b08:	f000 80ed 	beq.w	8001ce6 <HAL_RCC_OscConfig+0x36e>
        tickstart = HAL_GetTick();
 8001b0c:	f7ff fc94 	bl	8001438 <HAL_GetTick>
 8001b10:	4604      	mov	r4, r0
        while (__HAL_RCC_GET_FLAG(RCC_FLAG_PLLRDY)  != RESET)
 8001b12:	e004      	b.n	8001b1e <HAL_RCC_OscConfig+0x1a6>
          if ((HAL_GetTick() - tickstart) > PLL_TIMEOUT_VALUE)
 8001b14:	f7ff fc90 	bl	8001438 <HAL_GetTick>
 8001b18:	1b00      	subs	r0, r0, r4
 8001b1a:	2802      	cmp	r0, #2
 8001b1c:	d850      	bhi.n	8001bc0 <HAL_RCC_OscConfig+0x248>
        while (__HAL_RCC_GET_FLAG(RCC_FLAG_PLLRDY)  != RESET)
 8001b1e:	682b      	ldr	r3, [r5, #0]
 8001b20:	019b      	lsls	r3, r3, #6
 8001b22:	d4f7      	bmi.n	8001b14 <HAL_RCC_OscConfig+0x19c>
  return HAL_OK;
 8001b24:	2000      	movs	r0, #0
}
 8001b26:	b002      	add	sp, #8
 8001b28:	e8bd 81f0 	ldmia.w	sp!, {r4, r5, r6, r7, r8, pc}
        || ((__HAL_RCC_GET_SYSCLK_SOURCE() == RCC_SYSCLKSOURCE_STATUS_PLLCLK) && (__HAL_RCC_GET_PLL_OSCSOURCE() == RCC_PLLSOURCE_HSI_DIV2)))
 8001b2c:	6852      	ldr	r2, [r2, #4]
 8001b2e:	03d6      	lsls	r6, r2, #15
 8001b30:	f53f af70 	bmi.w	8001a14 <HAL_RCC_OscConfig+0x9c>
      if ((__HAL_RCC_GET_FLAG(RCC_FLAG_HSIRDY) != RESET) && (RCC_OscInitStruct->HSIState != RCC_HSI_ON))
 8001b34:	4a2f      	ldr	r2, [pc, #188]	@ (8001bf4 <HAL_RCC_OscConfig+0x27c>)
 8001b36:	6812      	ldr	r2, [r2, #0]
 8001b38:	0795      	lsls	r5, r2, #30
 8001b3a:	d525      	bpl.n	8001b88 <HAL_RCC_OscConfig+0x210>
 8001b3c:	6922      	ldr	r2, [r4, #16]
 8001b3e:	2a01      	cmp	r2, #1
 8001b40:	d022      	beq.n	8001b88 <HAL_RCC_OscConfig+0x210>
    return HAL_ERROR;
 8001b42:	2001      	movs	r0, #1
 8001b44:	e7ef      	b.n	8001b26 <HAL_RCC_OscConfig+0x1ae>
      __HAL_RCC_LSI_DISABLE();
 8001b46:	4a2c      	ldr	r2, [pc, #176]	@ (8001bf8 <HAL_RCC_OscConfig+0x280>)
      while (__HAL_RCC_GET_FLAG(RCC_FLAG_LSIRDY) != RESET)
 8001b48:	4e2a      	ldr	r6, [pc, #168]	@ (8001bf4 <HAL_RCC_OscConfig+0x27c>)
      __HAL_RCC_LSI_DISABLE();
 8001b4a:	f8c2 3480 	str.w	r3, [r2, #1152]	@ 0x480
      tickstart = HAL_GetTick();
 8001b4e:	f7ff fc73 	bl	8001438 <HAL_GetTick>
 8001b52:	4605      	mov	r5, r0
      while (__HAL_RCC_GET_FLAG(RCC_FLAG_LSIRDY) != RESET)
 8001b54:	e004      	b.n	8001b60 <HAL_RCC_OscConfig+0x1e8>
        if ((HAL_GetTick() - tickstart) > LSI_TIMEOUT_VALUE)
 8001b56:	f7ff fc6f 	bl	8001438 <HAL_GetTick>
 8001b5a:	1b40      	subs	r0, r0, r5
 8001b5c:	2802      	cmp	r0, #2
 8001b5e:	d82f      	bhi.n	8001bc0 <HAL_RCC_OscConfig+0x248>
      while (__HAL_RCC_GET_FLAG(RCC_FLAG_LSIRDY) != RESET)
 8001b60:	6a73      	ldr	r3, [r6, #36]	@ 0x24
 8001b62:	079f      	lsls	r7, r3, #30
 8001b64:	d4f7      	bmi.n	8001b56 <HAL_RCC_OscConfig+0x1de>
 8001b66:	e7bf      	b.n	8001ae8 <HAL_RCC_OscConfig+0x170>
    FlagStatus       pwrclkchanged = RESET;
 8001b68:	2500      	movs	r5, #0
 8001b6a:	e783      	b.n	8001a74 <HAL_RCC_OscConfig+0xfc>
        || ((__HAL_RCC_GET_SYSCLK_SOURCE() == RCC_SYSCLKSOURCE_STATUS_PLLCLK) && (__HAL_RCC_GET_PLL_OSCSOURCE() == RCC_PLLSOURCE_HSE)))
 8001b6c:	684a      	ldr	r2, [r1, #4]
 8001b6e:	03d0      	lsls	r0, r2, #15
 8001b70:	f57f af19 	bpl.w	80019a6 <HAL_RCC_OscConfig+0x2e>
      if ((__HAL_RCC_GET_FLAG(RCC_FLAG_HSERDY) != RESET) && (RCC_OscInitStruct->HSEState == RCC_HSE_OFF))
 8001b74:	4a1f      	ldr	r2, [pc, #124]	@ (8001bf4 <HAL_RCC_OscConfig+0x27c>)
 8001b76:	6812      	ldr	r2, [r2, #0]
 8001b78:	0391      	lsls	r1, r2, #14
 8001b7a:	f57f af3d 	bpl.w	80019f8 <HAL_RCC_OscConfig+0x80>
 8001b7e:	6862      	ldr	r2, [r4, #4]
 8001b80:	2a00      	cmp	r2, #0
 8001b82:	f47f af39 	bne.w	80019f8 <HAL_RCC_OscConfig+0x80>
 8001b86:	e7dc      	b.n	8001b42 <HAL_RCC_OscConfig+0x1ca>
        __HAL_RCC_HSI_CALIBRATIONVALUE_ADJUST(RCC_OscInitStruct->HSICalibrationValue);
 8001b88:	491a      	ldr	r1, [pc, #104]	@ (8001bf4 <HAL_RCC_OscConfig+0x27c>)
 8001b8a:	6960      	ldr	r0, [r4, #20]
 8001b8c:	680a      	ldr	r2, [r1, #0]
 8001b8e:	f022 02f8 	bic.w	r2, r2, #248	@ 0xf8
 8001b92:	ea42 02c0 	orr.w	r2, r2, r0, lsl #3
 8001b96:	600a      	str	r2, [r1, #0]
  if (((RCC_OscInitStruct->OscillatorType) & RCC_OSCILLATORTYPE_LSI) == RCC_OSCILLATORTYPE_LSI)
 8001b98:	071a      	lsls	r2, r3, #28
 8001b9a:	f57f af5a 	bpl.w	8001a52 <HAL_RCC_OscConfig+0xda>
 8001b9e:	e782      	b.n	8001aa6 <HAL_RCC_OscConfig+0x12e>
      SET_BIT(PWR->CR, PWR_CR_DBP);
 8001ba0:	6833      	ldr	r3, [r6, #0]
 8001ba2:	f443 7380 	orr.w	r3, r3, #256	@ 0x100
 8001ba6:	6033      	str	r3, [r6, #0]
      tickstart = HAL_GetTick();
 8001ba8:	f7ff fc46 	bl	8001438 <HAL_GetTick>
 8001bac:	4607      	mov	r7, r0
      while (HAL_IS_BIT_CLR(PWR->CR, PWR_CR_DBP))
 8001bae:	6833      	ldr	r3, [r6, #0]
 8001bb0:	05da      	lsls	r2, r3, #23
 8001bb2:	f53f af64 	bmi.w	8001a7e <HAL_RCC_OscConfig+0x106>
        if ((HAL_GetTick() - tickstart) > RCC_DBP_TIMEOUT_VALUE)
 8001bb6:	f7ff fc3f 	bl	8001438 <HAL_GetTick>
 8001bba:	1bc0      	subs	r0, r0, r7
 8001bbc:	2864      	cmp	r0, #100	@ 0x64
 8001bbe:	d9f6      	bls.n	8001bae <HAL_RCC_OscConfig+0x236>
            return HAL_TIMEOUT;
 8001bc0:	2003      	movs	r0, #3
}
 8001bc2:	b002      	add	sp, #8
 8001bc4:	e8bd 81f0 	ldmia.w	sp!, {r4, r5, r6, r7, r8, pc}
      __HAL_RCC_HSE_CONFIG(RCC_OscInitStruct->HSEState);
 8001bc8:	4d0a      	ldr	r5, [pc, #40]	@ (8001bf4 <HAL_RCC_OscConfig+0x27c>)
 8001bca:	682b      	ldr	r3, [r5, #0]
 8001bcc:	f423 3380 	bic.w	r3, r3, #65536	@ 0x10000
 8001bd0:	602b      	str	r3, [r5, #0]
 8001bd2:	682b      	ldr	r3, [r5, #0]
 8001bd4:	f423 2380 	bic.w	r3, r3, #262144	@ 0x40000
 8001bd8:	602b      	str	r3, [r5, #0]
        tickstart = HAL_GetTick();
 8001bda:	f7ff fc2d 	bl	8001438 <HAL_GetTick>
 8001bde:	4606      	mov	r6, r0
        while (__HAL_RCC_GET_FLAG(RCC_FLAG_HSERDY) != RESET)
 8001be0:	e004      	b.n	8001bec <HAL_RCC_OscConfig+0x274>
          if ((HAL_GetTick() - tickstart) > HSE_TIMEOUT_VALUE)
 8001be2:	f7ff fc29 	bl	8001438 <HAL_GetTick>
 8001be6:	1b80      	subs	r0, r0, r6
 8001be8:	2864      	cmp	r0, #100	@ 0x64
 8001bea:	d8e9      	bhi.n	8001bc0 <HAL_RCC_OscConfig+0x248>
        while (__HAL_RCC_GET_FLAG(RCC_FLAG_HSERDY) != RESET)
 8001bec:	682b      	ldr	r3, [r5, #0]
 8001bee:	039b      	lsls	r3, r3, #14
 8001bf0:	d4f7      	bmi.n	8001be2 <HAL_RCC_OscConfig+0x26a>
 8001bf2:	e700      	b.n	80019f6 <HAL_RCC_OscConfig+0x7e>
 8001bf4:	40021000 	.word	0x40021000
 8001bf8:	42420000 	.word	0x42420000
 8001bfc:	40007000 	.word	0x40007000
 8001c00:	20000054 	.word	0x20000054
 8001c04:	10624dd3 	.word	0x10624dd3
    __HAL_RCC_LSE_CONFIG(RCC_OscInitStruct->LSEState);
 8001c08:	4e50      	ldr	r6, [pc, #320]	@ (8001d4c <HAL_RCC_OscConfig+0x3d4>)
        if ((HAL_GetTick() - tickstart) > RCC_LSE_TIMEOUT_VALUE)
 8001c0a:	f241 3888 	movw	r8, #5000	@ 0x1388
    __HAL_RCC_LSE_CONFIG(RCC_OscInitStruct->LSEState);
 8001c0e:	6a33      	ldr	r3, [r6, #32]
 8001c10:	f023 0301 	bic.w	r3, r3, #1
 8001c14:	6233      	str	r3, [r6, #32]
 8001c16:	6a33      	ldr	r3, [r6, #32]
 8001c18:	f023 0304 	bic.w	r3, r3, #4
 8001c1c:	6233      	str	r3, [r6, #32]
      tickstart = HAL_GetTick();
 8001c1e:	f7ff fc0b 	bl	8001438 <HAL_GetTick>
 8001c22:	4607      	mov	r7, r0
      while (__HAL_RCC_GET_FLAG(RCC_FLAG_LSERDY) != RESET)
 8001c24:	e004      	b.n	8001c30 <HAL_RCC_OscConfig+0x2b8>
        if ((HAL_GetTick() - tickstart) > RCC_LSE_TIMEOUT_VALUE)
 8001c26:	f7ff fc07 	bl	8001438 <HAL_GetTick>
 8001c2a:	1bc0      	subs	r0, r0, r7
 8001c2c:	4540      	cmp	r0, r8
 8001c2e:	d8c7      	bhi.n	8001bc0 <HAL_RCC_OscConfig+0x248>
      while (__HAL_RCC_GET_FLAG(RCC_FLAG_LSERDY) != RESET)
 8001c30:	6a33      	ldr	r3, [r6, #32]
 8001c32:	0798      	lsls	r0, r3, #30
 8001c34:	d4f7      	bmi.n	8001c26 <HAL_RCC_OscConfig+0x2ae>
    if (pwrclkchanged == SET)
 8001c36:	2d00      	cmp	r5, #0
 8001c38:	f43f af59 	beq.w	8001aee <HAL_RCC_OscConfig+0x176>
      __HAL_RCC_PWR_CLK_DISABLE();
 8001c3c:	4a43      	ldr	r2, [pc, #268]	@ (8001d4c <HAL_RCC_OscConfig+0x3d4>)
 8001c3e:	69d3      	ldr	r3, [r2, #28]
 8001c40:	f023 5380 	bic.w	r3, r3, #268435456	@ 0x10000000
 8001c44:	61d3      	str	r3, [r2, #28]
 8001c46:	e752      	b.n	8001aee <HAL_RCC_OscConfig+0x176>
        __HAL_RCC_HSI_DISABLE();
 8001c48:	4a41      	ldr	r2, [pc, #260]	@ (8001d50 <HAL_RCC_OscConfig+0x3d8>)
        while (__HAL_RCC_GET_FLAG(RCC_FLAG_HSIRDY) != RESET)
 8001c4a:	4e40      	ldr	r6, [pc, #256]	@ (8001d4c <HAL_RCC_OscConfig+0x3d4>)
        __HAL_RCC_HSI_DISABLE();
 8001c4c:	6013      	str	r3, [r2, #0]
        tickstart = HAL_GetTick();
 8001c4e:	f7ff fbf3 	bl	8001438 <HAL_GetTick>
 8001c52:	4605      	mov	r5, r0
        while (__HAL_RCC_GET_FLAG(RCC_FLAG_HSIRDY) != RESET)
 8001c54:	e004      	b.n	8001c60 <HAL_RCC_OscConfig+0x2e8>
          if ((HAL_GetTick() - tickstart) > HSI_TIMEOUT_VALUE)
 8001c56:	f7ff fbef 	bl	8001438 <HAL_GetTick>
 8001c5a:	1b40      	subs	r0, r0, r5
 8001c5c:	2802      	cmp	r0, #2
 8001c5e:	d8af      	bhi.n	8001bc0 <HAL_RCC_OscConfig+0x248>
        while (__HAL_RCC_GET_FLAG(RCC_FLAG_HSIRDY) != RESET)
 8001c60:	6833      	ldr	r3, [r6, #0]
 8001c62:	0799      	lsls	r1, r3, #30
 8001c64:	d4f7      	bmi.n	8001c56 <HAL_RCC_OscConfig+0x2de>
  if (((RCC_OscInitStruct->OscillatorType) & RCC_OSCILLATORTYPE_LSI) == RCC_OSCILLATORTYPE_LSI)
 8001c66:	6823      	ldr	r3, [r4, #0]
 8001c68:	e6f1      	b.n	8001a4e <HAL_RCC_OscConfig+0xd6>
    __HAL_RCC_LSE_CONFIG(RCC_OscInitStruct->LSEState);
 8001c6a:	4a38      	ldr	r2, [pc, #224]	@ (8001d4c <HAL_RCC_OscConfig+0x3d4>)
 8001c6c:	6a13      	ldr	r3, [r2, #32]
 8001c6e:	f043 0301 	orr.w	r3, r3, #1
 8001c72:	6213      	str	r3, [r2, #32]
      tickstart = HAL_GetTick();
 8001c74:	f7ff fbe0 	bl	8001438 <HAL_GetTick>
        if ((HAL_GetTick() - tickstart) > RCC_LSE_TIMEOUT_VALUE)
 8001c78:	f241 3888 	movw	r8, #5000	@ 0x1388
      tickstart = HAL_GetTick();
 8001c7c:	4606      	mov	r6, r0
      while (__HAL_RCC_GET_FLAG(RCC_FLAG_LSERDY) == RESET)
 8001c7e:	4f33      	ldr	r7, [pc, #204]	@ (8001d4c <HAL_RCC_OscConfig+0x3d4>)
 8001c80:	e004      	b.n	8001c8c <HAL_RCC_OscConfig+0x314>
        if ((HAL_GetTick() - tickstart) > RCC_LSE_TIMEOUT_VALUE)
 8001c82:	f7ff fbd9 	bl	8001438 <HAL_GetTick>
 8001c86:	1b80      	subs	r0, r0, r6
 8001c88:	4540      	cmp	r0, r8
 8001c8a:	d899      	bhi.n	8001bc0 <HAL_RCC_OscConfig+0x248>
      while (__HAL_RCC_GET_FLAG(RCC_FLAG_LSERDY) == RESET)
 8001c8c:	6a3b      	ldr	r3, [r7, #32]
 8001c8e:	079b      	lsls	r3, r3, #30
 8001c90:	d5f7      	bpl.n	8001c82 <HAL_RCC_OscConfig+0x30a>
    if (pwrclkchanged == SET)
 8001c92:	2d00      	cmp	r5, #0
 8001c94:	f43f af2b 	beq.w	8001aee <HAL_RCC_OscConfig+0x176>
 8001c98:	e7d0      	b.n	8001c3c <HAL_RCC_OscConfig+0x2c4>
      if ((RCC_OscInitStruct->PLL.PLLState) == RCC_PLL_OFF)
 8001c9a:	2b01      	cmp	r3, #1
 8001c9c:	f43f af51 	beq.w	8001b42 <HAL_RCC_OscConfig+0x1ca>
        pll_config = RCC->CFGR;
 8001ca0:	686b      	ldr	r3, [r5, #4]
        if ((READ_BIT(pll_config, RCC_CFGR_PLLSRC) != RCC_OscInitStruct->PLL.PLLSource) ||
 8001ca2:	6a22      	ldr	r2, [r4, #32]
 8001ca4:	f403 3180 	and.w	r1, r3, #65536	@ 0x10000
 8001ca8:	4291      	cmp	r1, r2
 8001caa:	f47f af4a 	bne.w	8001b42 <HAL_RCC_OscConfig+0x1ca>
 8001cae:	6a60      	ldr	r0, [r4, #36]	@ 0x24
            (READ_BIT(pll_config, RCC_CFGR_PLLMULL) != RCC_OscInitStruct->PLL.PLLMUL))
 8001cb0:	f403 1370 	and.w	r3, r3, #3932160	@ 0x3c0000
        if ((READ_BIT(pll_config, RCC_CFGR_PLLSRC) != RCC_OscInitStruct->PLL.PLLSource) ||
 8001cb4:	1a18      	subs	r0, r3, r0
 8001cb6:	bf18      	it	ne
 8001cb8:	2001      	movne	r0, #1
 8001cba:	e734      	b.n	8001b26 <HAL_RCC_OscConfig+0x1ae>
      __HAL_RCC_HSE_CONFIG(RCC_OscInitStruct->HSEState);
 8001cbc:	f103 4380 	add.w	r3, r3, #1073741824	@ 0x40000000
 8001cc0:	f5a3 333c 	sub.w	r3, r3, #192512	@ 0x2f000
 8001cc4:	681a      	ldr	r2, [r3, #0]
 8001cc6:	f442 2280 	orr.w	r2, r2, #262144	@ 0x40000
 8001cca:	601a      	str	r2, [r3, #0]
 8001ccc:	681a      	ldr	r2, [r3, #0]
 8001cce:	f442 3280 	orr.w	r2, r2, #65536	@ 0x10000
 8001cd2:	601a      	str	r2, [r3, #0]
      if (RCC_OscInitStruct->HSEState != RCC_HSE_OFF)
 8001cd4:	e681      	b.n	80019da <HAL_RCC_OscConfig+0x62>
    __HAL_RCC_LSE_CONFIG(RCC_OscInitStruct->LSEState);
 8001cd6:	f042 0204 	orr.w	r2, r2, #4
 8001cda:	621a      	str	r2, [r3, #32]
 8001cdc:	6a1a      	ldr	r2, [r3, #32]
 8001cde:	f042 0201 	orr.w	r2, r2, #1
 8001ce2:	621a      	str	r2, [r3, #32]
    if (RCC_OscInitStruct->LSEState != RCC_LSE_OFF)
 8001ce4:	e7c6      	b.n	8001c74 <HAL_RCC_OscConfig+0x2fc>
        tickstart = HAL_GetTick();
 8001ce6:	f7ff fba7 	bl	8001438 <HAL_GetTick>
 8001cea:	4606      	mov	r6, r0
        while (__HAL_RCC_GET_FLAG(RCC_FLAG_PLLRDY)  != RESET)
 8001cec:	e005      	b.n	8001cfa <HAL_RCC_OscConfig+0x382>
          if ((HAL_GetTick() - tickstart) > PLL_TIMEOUT_VALUE)
 8001cee:	f7ff fba3 	bl	8001438 <HAL_GetTick>
 8001cf2:	1b80      	subs	r0, r0, r6
 8001cf4:	2802      	cmp	r0, #2
 8001cf6:	f63f af63 	bhi.w	8001bc0 <HAL_RCC_OscConfig+0x248>
        while (__HAL_RCC_GET_FLAG(RCC_FLAG_PLLRDY)  != RESET)
 8001cfa:	682b      	ldr	r3, [r5, #0]
 8001cfc:	0199      	lsls	r1, r3, #6
 8001cfe:	d4f6      	bmi.n	8001cee <HAL_RCC_OscConfig+0x376>
        if (RCC_OscInitStruct->PLL.PLLSource == RCC_PLLSOURCE_HSE)
 8001d00:	6a23      	ldr	r3, [r4, #32]
 8001d02:	f5b3 3f80 	cmp.w	r3, #65536	@ 0x10000
 8001d06:	d105      	bne.n	8001d14 <HAL_RCC_OscConfig+0x39c>
          __HAL_RCC_HSE_PREDIV_CONFIG(RCC_OscInitStruct->HSEPredivValue);
 8001d08:	686a      	ldr	r2, [r5, #4]
 8001d0a:	68a1      	ldr	r1, [r4, #8]
 8001d0c:	f422 3200 	bic.w	r2, r2, #131072	@ 0x20000
 8001d10:	430a      	orrs	r2, r1
 8001d12:	606a      	str	r2, [r5, #4]
        __HAL_RCC_PLL_ENABLE();
 8001d14:	2001      	movs	r0, #1
        __HAL_RCC_PLL_CONFIG(RCC_OscInitStruct->PLL.PLLSource,
 8001d16:	4d0d      	ldr	r5, [pc, #52]	@ (8001d4c <HAL_RCC_OscConfig+0x3d4>)
 8001d18:	6a61      	ldr	r1, [r4, #36]	@ 0x24
 8001d1a:	686a      	ldr	r2, [r5, #4]
 8001d1c:	430b      	orrs	r3, r1
 8001d1e:	f422 1274 	bic.w	r2, r2, #3997696	@ 0x3d0000
        __HAL_RCC_PLL_ENABLE();
 8001d22:	490b      	ldr	r1, [pc, #44]	@ (8001d50 <HAL_RCC_OscConfig+0x3d8>)
        __HAL_RCC_PLL_CONFIG(RCC_OscInitStruct->PLL.PLLSource,
 8001d24:	4313      	orrs	r3, r2
 8001d26:	606b      	str	r3, [r5, #4]
        __HAL_RCC_PLL_ENABLE();
 8001d28:	6608      	str	r0, [r1, #96]	@ 0x60
        tickstart = HAL_GetTick();
 8001d2a:	f7ff fb85 	bl	8001438 <HAL_GetTick>
 8001d2e:	4604      	mov	r4, r0
        while (__HAL_RCC_GET_FLAG(RCC_FLAG_PLLRDY)  == RESET)
 8001d30:	e005      	b.n	8001d3e <HAL_RCC_OscConfig+0x3c6>
          if ((HAL_GetTick() - tickstart) > PLL_TIMEOUT_VALUE)
 8001d32:	f7ff fb81 	bl	8001438 <HAL_GetTick>
 8001d36:	1b00      	subs	r0, r0, r4
 8001d38:	2802      	cmp	r0, #2
 8001d3a:	f63f af41 	bhi.w	8001bc0 <HAL_RCC_OscConfig+0x248>
        while (__HAL_RCC_GET_FLAG(RCC_FLAG_PLLRDY)  == RESET)
 8001d3e:	682b      	ldr	r3, [r5, #0]
 8001d40:	019a      	lsls	r2, r3, #6
 8001d42:	d5f6      	bpl.n	8001d32 <HAL_RCC_OscConfig+0x3ba>
 8001d44:	e6ee      	b.n	8001b24 <HAL_RCC_OscConfig+0x1ac>
    return HAL_ERROR;
 8001d46:	2001      	movs	r0, #1
}
 8001d48:	4770      	bx	lr
 8001d4a:	bf00      	nop
 8001d4c:	40021000 	.word	0x40021000
 8001d50:	42420000 	.word	0x42420000

08001d54 <HAL_RCC_ClockConfig>:
  if (RCC_ClkInitStruct == NULL)
 8001d54:	2800      	cmp	r0, #0
 8001d56:	f000 80a1 	beq.w	8001e9c <HAL_RCC_ClockConfig+0x148>
  if (FLatency > __HAL_FLASH_GET_LATENCY())
 8001d5a:	4a56      	ldr	r2, [pc, #344]	@ (8001eb4 <HAL_RCC_ClockConfig+0x160>)
{
 8001d5c:	e92d 41f0 	stmdb	sp!, {r4, r5, r6, r7, r8, lr}
  if (FLatency > __HAL_FLASH_GET_LATENCY())
 8001d60:	6813      	ldr	r3, [r2, #0]
 8001d62:	4604      	mov	r4, r0
 8001d64:	f003 0307 	and.w	r3, r3, #7
 8001d68:	428b      	cmp	r3, r1
 8001d6a:	460d      	mov	r5, r1
 8001d6c:	d20c      	bcs.n	8001d88 <HAL_RCC_ClockConfig+0x34>
    __HAL_FLASH_SET_LATENCY(FLatency);
 8001d6e:	6813      	ldr	r3, [r2, #0]
 8001d70:	f023 0307 	bic.w	r3, r3, #7
 8001d74:	430b      	orrs	r3, r1
 8001d76:	6013      	str	r3, [r2, #0]
    if (__HAL_FLASH_GET_LATENCY() != FLatency)
 8001d78:	6813      	ldr	r3, [r2, #0]
 8001d7a:	f003 0307 	and.w	r3, r3, #7
 8001d7e:	428b      	cmp	r3, r1
 8001d80:	d002      	beq.n	8001d88 <HAL_RCC_ClockConfig+0x34>
    return HAL_ERROR;
 8001d82:	2001      	movs	r0, #1
}
 8001d84:	e8bd 81f0 	ldmia.w	sp!, {r4, r5, r6, r7, r8, pc}
if (((RCC_ClkInitStruct->ClockType) & RCC_CLOCKTYPE_HCLK) == RCC_CLOCKTYPE_HCLK)
 8001d88:	6823      	ldr	r3, [r4, #0]
 8001d8a:	079e      	lsls	r6, r3, #30
 8001d8c:	d514      	bpl.n	8001db8 <HAL_RCC_ClockConfig+0x64>
    if (((RCC_ClkInitStruct->ClockType) & RCC_CLOCKTYPE_PCLK1) == RCC_CLOCKTYPE_PCLK1)
 8001d8e:	0758      	lsls	r0, r3, #29
 8001d90:	d504      	bpl.n	8001d9c <HAL_RCC_ClockConfig+0x48>
      MODIFY_REG(RCC->CFGR, RCC_CFGR_PPRE1, RCC_HCLK_DIV16);
 8001d92:	4949      	ldr	r1, [pc, #292]	@ (8001eb8 <HAL_RCC_ClockConfig+0x164>)
 8001d94:	684a      	ldr	r2, [r1, #4]
 8001d96:	f442 62e0 	orr.w	r2, r2, #1792	@ 0x700
 8001d9a:	604a      	str	r2, [r1, #4]
    if (((RCC_ClkInitStruct->ClockType) & RCC_CLOCKTYPE_PCLK2) == RCC_CLOCKTYPE_PCLK2)
 8001d9c:	0719      	lsls	r1, r3, #28
 8001d9e:	d504      	bpl.n	8001daa <HAL_RCC_ClockConfig+0x56>
      MODIFY_REG(RCC->CFGR, RCC_CFGR_PPRE2, (RCC_HCLK_DIV16 << 3));
 8001da0:	4945      	ldr	r1, [pc, #276]	@ (8001eb8 <HAL_RCC_ClockConfig+0x164>)
 8001da2:	684a      	ldr	r2, [r1, #4]
 8001da4:	f442 5260 	orr.w	r2, r2, #14336	@ 0x3800
 8001da8:	604a      	str	r2, [r1, #4]
    MODIFY_REG(RCC->CFGR, RCC_CFGR_HPRE, RCC_ClkInitStruct->AHBCLKDivider);
 8001daa:	4943      	ldr	r1, [pc, #268]	@ (8001eb8 <HAL_RCC_ClockConfig+0x164>)
 8001dac:	68a0      	ldr	r0, [r4, #8]
 8001dae:	684a      	ldr	r2, [r1, #4]
 8001db0:	f022 02f0 	bic.w	r2, r2, #240	@ 0xf0
 8001db4:	4302      	orrs	r2, r0
 8001db6:	604a      	str	r2, [r1, #4]
  if (((RCC_ClkInitStruct->ClockType) & RCC_CLOCKTYPE_SYSCLK) == RCC_CLOCKTYPE_SYSCLK)
 8001db8:	07da      	lsls	r2, r3, #31
 8001dba:	d520      	bpl.n	8001dfe <HAL_RCC_ClockConfig+0xaa>
    if (RCC_ClkInitStruct->SYSCLKSource == RCC_SYSCLKSOURCE_HSE)
 8001dbc:	6862      	ldr	r2, [r4, #4]
      if (__HAL_RCC_GET_FLAG(RCC_FLAG_HSERDY) == RESET)
 8001dbe:	4b3e      	ldr	r3, [pc, #248]	@ (8001eb8 <HAL_RCC_ClockConfig+0x164>)
    if (RCC_ClkInitStruct->SYSCLKSource == RCC_SYSCLKSOURCE_HSE)
 8001dc0:	2a01      	cmp	r2, #1
      if (__HAL_RCC_GET_FLAG(RCC_FLAG_HSERDY) == RESET)
 8001dc2:	681b      	ldr	r3, [r3, #0]
    if (RCC_ClkInitStruct->SYSCLKSource == RCC_SYSCLKSOURCE_HSE)
 8001dc4:	d06c      	beq.n	8001ea0 <HAL_RCC_ClockConfig+0x14c>
    else if (RCC_ClkInitStruct->SYSCLKSource == RCC_SYSCLKSOURCE_PLLCLK)
 8001dc6:	2a02      	cmp	r2, #2
 8001dc8:	d065      	beq.n	8001e96 <HAL_RCC_ClockConfig+0x142>
      if (__HAL_RCC_GET_FLAG(RCC_FLAG_HSIRDY) == RESET)
 8001dca:	079e      	lsls	r6, r3, #30
 8001dcc:	d5d9      	bpl.n	8001d82 <HAL_RCC_ClockConfig+0x2e>
    __HAL_RCC_SYSCLK_CONFIG(RCC_ClkInitStruct->SYSCLKSource);
 8001dce:	4e3a      	ldr	r6, [pc, #232]	@ (8001eb8 <HAL_RCC_ClockConfig+0x164>)
      if ((HAL_GetTick() - tickstart) > CLOCKSWITCH_TIMEOUT_VALUE)
 8001dd0:	f241 3888 	movw	r8, #5000	@ 0x1388
    __HAL_RCC_SYSCLK_CONFIG(RCC_ClkInitStruct->SYSCLKSource);
 8001dd4:	6873      	ldr	r3, [r6, #4]
 8001dd6:	f023 0303 	bic.w	r3, r3, #3
 8001dda:	4313      	orrs	r3, r2
 8001ddc:	6073      	str	r3, [r6, #4]
    tickstart = HAL_GetTick();
 8001dde:	f7ff fb2b 	bl	8001438 <HAL_GetTick>
 8001de2:	4607      	mov	r7, r0
    while (__HAL_RCC_GET_SYSCLK_SOURCE() != (RCC_ClkInitStruct->SYSCLKSource << RCC_CFGR_SWS_Pos))
 8001de4:	e004      	b.n	8001df0 <HAL_RCC_ClockConfig+0x9c>
      if ((HAL_GetTick() - tickstart) > CLOCKSWITCH_TIMEOUT_VALUE)
 8001de6:	f7ff fb27 	bl	8001438 <HAL_GetTick>
 8001dea:	1bc0      	subs	r0, r0, r7
 8001dec:	4540      	cmp	r0, r8
 8001dee:	d85a      	bhi.n	8001ea6 <HAL_RCC_ClockConfig+0x152>
    while (__HAL_RCC_GET_SYSCLK_SOURCE() != (RCC_ClkInitStruct->SYSCLKSource << RCC_CFGR_SWS_Pos))
 8001df0:	6873      	ldr	r3, [r6, #4]
 8001df2:	6862      	ldr	r2, [r4, #4]
 8001df4:	f003 030c 	and.w	r3, r3, #12
 8001df8:	ebb3 0f82 	cmp.w	r3, r2, lsl #2
 8001dfc:	d1f3      	bne.n	8001de6 <HAL_RCC_ClockConfig+0x92>
  if (FLatency < __HAL_FLASH_GET_LATENCY())
 8001dfe:	4a2d      	ldr	r2, [pc, #180]	@ (8001eb4 <HAL_RCC_ClockConfig+0x160>)
 8001e00:	6813      	ldr	r3, [r2, #0]
 8001e02:	f003 0307 	and.w	r3, r3, #7
 8001e06:	42ab      	cmp	r3, r5
 8001e08:	d909      	bls.n	8001e1e <HAL_RCC_ClockConfig+0xca>
    __HAL_FLASH_SET_LATENCY(FLatency);
 8001e0a:	6813      	ldr	r3, [r2, #0]
 8001e0c:	f023 0307 	bic.w	r3, r3, #7
 8001e10:	432b      	orrs	r3, r5
 8001e12:	6013      	str	r3, [r2, #0]
    if (__HAL_FLASH_GET_LATENCY() != FLatency)
 8001e14:	6813      	ldr	r3, [r2, #0]
 8001e16:	f003 0307 	and.w	r3, r3, #7
 8001e1a:	42ab      	cmp	r3, r5
 8001e1c:	d1b1      	bne.n	8001d82 <HAL_RCC_ClockConfig+0x2e>
if (((RCC_ClkInitStruct->ClockType) & RCC_CLOCKTYPE_PCLK1) == RCC_CLOCKTYPE_PCLK1)
 8001e1e:	6823      	ldr	r3, [r4, #0]
 8001e20:	0758      	lsls	r0, r3, #29
 8001e22:	d506      	bpl.n	8001e32 <HAL_RCC_ClockConfig+0xde>
    MODIFY_REG(RCC->CFGR, RCC_CFGR_PPRE1, RCC_ClkInitStruct->APB1CLKDivider);
 8001e24:	4924      	ldr	r1, [pc, #144]	@ (8001eb8 <HAL_RCC_ClockConfig+0x164>)
 8001e26:	68e0      	ldr	r0, [r4, #12]
 8001e28:	684a      	ldr	r2, [r1, #4]
 8001e2a:	f422 62e0 	bic.w	r2, r2, #1792	@ 0x700
 8001e2e:	4302      	orrs	r2, r0
 8001e30:	604a      	str	r2, [r1, #4]
  if (((RCC_ClkInitStruct->ClockType) & RCC_CLOCKTYPE_PCLK2) == RCC_CLOCKTYPE_PCLK2)
 8001e32:	0719      	lsls	r1, r3, #28
 8001e34:	d507      	bpl.n	8001e46 <HAL_RCC_ClockConfig+0xf2>
    MODIFY_REG(RCC->CFGR, RCC_CFGR_PPRE2, ((RCC_ClkInitStruct->APB2CLKDivider) << 3));
 8001e36:	4a20      	ldr	r2, [pc, #128]	@ (8001eb8 <HAL_RCC_ClockConfig+0x164>)
 8001e38:	6921      	ldr	r1, [r4, #16]
 8001e3a:	6853      	ldr	r3, [r2, #4]
 8001e3c:	f423 5360 	bic.w	r3, r3, #14336	@ 0x3800
 8001e40:	ea43 03c1 	orr.w	r3, r3, r1, lsl #3
 8001e44:	6053      	str	r3, [r2, #4]
  tmpreg = RCC->CFGR;
 8001e46:	491c      	ldr	r1, [pc, #112]	@ (8001eb8 <HAL_RCC_ClockConfig+0x164>)
 8001e48:	684a      	ldr	r2, [r1, #4]
  switch (tmpreg & RCC_CFGR_SWS)
 8001e4a:	f002 030c 	and.w	r3, r2, #12
 8001e4e:	2b08      	cmp	r3, #8
 8001e50:	d010      	beq.n	8001e74 <HAL_RCC_ClockConfig+0x120>
      sysclockfreq = HSE_VALUE;
 8001e52:	4b1a      	ldr	r3, [pc, #104]	@ (8001ebc <HAL_RCC_ClockConfig+0x168>)
  SystemCoreClock = HAL_RCC_GetSysClockFreq() >> AHBPrescTable[(RCC->CFGR & RCC_CFGR_HPRE) >> RCC_CFGR_HPRE_Pos];
 8001e54:	4a18      	ldr	r2, [pc, #96]	@ (8001eb8 <HAL_RCC_ClockConfig+0x164>)
 8001e56:	481a      	ldr	r0, [pc, #104]	@ (8001ec0 <HAL_RCC_ClockConfig+0x16c>)
 8001e58:	6852      	ldr	r2, [r2, #4]
  HAL_InitTick(uwTickPrio);
 8001e5a:	491a      	ldr	r1, [pc, #104]	@ (8001ec4 <HAL_RCC_ClockConfig+0x170>)
  SystemCoreClock = HAL_RCC_GetSysClockFreq() >> AHBPrescTable[(RCC->CFGR & RCC_CFGR_HPRE) >> RCC_CFGR_HPRE_Pos];
 8001e5c:	f3c2 1203 	ubfx	r2, r2, #4, #4
 8001e60:	5c80      	ldrb	r0, [r0, r2]
 8001e62:	4a19      	ldr	r2, [pc, #100]	@ (8001ec8 <HAL_RCC_ClockConfig+0x174>)
 8001e64:	40c3      	lsrs	r3, r0
  HAL_InitTick(uwTickPrio);
 8001e66:	6808      	ldr	r0, [r1, #0]
  SystemCoreClock = HAL_RCC_GetSysClockFreq() >> AHBPrescTable[(RCC->CFGR & RCC_CFGR_HPRE) >> RCC_CFGR_HPRE_Pos];
 8001e68:	6013      	str	r3, [r2, #0]
  HAL_InitTick(uwTickPrio);
 8001e6a:	f7ff faa3 	bl	80013b4 <HAL_InitTick>
  return HAL_OK;
 8001e6e:	2000      	movs	r0, #0
}
 8001e70:	e8bd 81f0 	ldmia.w	sp!, {r4, r5, r6, r7, r8, pc}
      pllmul = aPLLMULFactorTable[(uint32_t)(tmpreg & RCC_CFGR_PLLMULL) >> RCC_CFGR_PLLMULL_Pos];
 8001e74:	4815      	ldr	r0, [pc, #84]	@ (8001ecc <HAL_RCC_ClockConfig+0x178>)
 8001e76:	f3c2 4383 	ubfx	r3, r2, #18, #4
      if ((tmpreg & RCC_CFGR_PLLSRC) != RCC_PLLSOURCE_HSI_DIV2)
 8001e7a:	03d2      	lsls	r2, r2, #15
      pllmul = aPLLMULFactorTable[(uint32_t)(tmpreg & RCC_CFGR_PLLMULL) >> RCC_CFGR_PLLMULL_Pos];
 8001e7c:	5cc3      	ldrb	r3, [r0, r3]
      if ((tmpreg & RCC_CFGR_PLLSRC) != RCC_PLLSOURCE_HSI_DIV2)
 8001e7e:	d514      	bpl.n	8001eaa <HAL_RCC_ClockConfig+0x156>
        pllclk = (uint32_t)((HSE_VALUE  * pllmul) / prediv);
 8001e80:	480e      	ldr	r0, [pc, #56]	@ (8001ebc <HAL_RCC_ClockConfig+0x168>)
        prediv = aPredivFactorTable[(uint32_t)(RCC->CFGR & RCC_CFGR_PLLXTPRE) >> RCC_CFGR_PLLXTPRE_Pos];
 8001e82:	684a      	ldr	r2, [r1, #4]
        pllclk = (uint32_t)((HSE_VALUE  * pllmul) / prediv);
 8001e84:	fb00 f303 	mul.w	r3, r0, r3
        prediv = aPredivFactorTable[(uint32_t)(RCC->CFGR & RCC_CFGR_PLLXTPRE) >> RCC_CFGR_PLLXTPRE_Pos];
 8001e88:	4911      	ldr	r1, [pc, #68]	@ (8001ed0 <HAL_RCC_ClockConfig+0x17c>)
 8001e8a:	f3c2 4240 	ubfx	r2, r2, #17, #1
 8001e8e:	5c8a      	ldrb	r2, [r1, r2]
        pllclk = (uint32_t)((HSE_VALUE  * pllmul) / prediv);
 8001e90:	fbb3 f3f2 	udiv	r3, r3, r2
 8001e94:	e7de      	b.n	8001e54 <HAL_RCC_ClockConfig+0x100>
      if (__HAL_RCC_GET_FLAG(RCC_FLAG_PLLRDY) == RESET)
 8001e96:	019f      	lsls	r7, r3, #6
 8001e98:	d499      	bmi.n	8001dce <HAL_RCC_ClockConfig+0x7a>
 8001e9a:	e772      	b.n	8001d82 <HAL_RCC_ClockConfig+0x2e>
    return HAL_ERROR;
 8001e9c:	2001      	movs	r0, #1
}
 8001e9e:	4770      	bx	lr
      if (__HAL_RCC_GET_FLAG(RCC_FLAG_HSERDY) == RESET)
 8001ea0:	039b      	lsls	r3, r3, #14
 8001ea2:	d494      	bmi.n	8001dce <HAL_RCC_ClockConfig+0x7a>
 8001ea4:	e76d      	b.n	8001d82 <HAL_RCC_ClockConfig+0x2e>
        return HAL_TIMEOUT;
 8001ea6:	2003      	movs	r0, #3
 8001ea8:	e76c      	b.n	8001d84 <HAL_RCC_ClockConfig+0x30>
        pllclk = (uint32_t)((HSI_VALUE >> 1) * pllmul);
 8001eaa:	4a0a      	ldr	r2, [pc, #40]	@ (8001ed4 <HAL_RCC_ClockConfig+0x180>)
 8001eac:	fb02 f303 	mul.w	r3, r2, r3
 8001eb0:	e7d0      	b.n	8001e54 <HAL_RCC_ClockConfig+0x100>
 8001eb2:	bf00      	nop
 8001eb4:	40022000 	.word	0x40022000
 8001eb8:	40021000 	.word	0x40021000
 8001ebc:	007a1200 	.word	0x007a1200
 8001ec0:	08002544 	.word	0x08002544
 8001ec4:	2000005c 	.word	0x2000005c
 8001ec8:	20000054 	.word	0x20000054
 8001ecc:	08002558 	.word	0x08002558
 8001ed0:	08002554 	.word	0x08002554
 8001ed4:	003d0900 	.word	0x003d0900

08001ed8 <HAL_TIM_PWM_Init>:
  * @retval HAL status
  */
HAL_StatusTypeDef HAL_TIM_PWM_Init(TIM_HandleTypeDef *htim)
{
  /* Check the TIM handle allocation */
  if (htim == NULL)
 8001ed8:	2800      	cmp	r0, #0
 8001eda:	d066      	beq.n	8001faa <HAL_TIM_PWM_Init+0xd2>
{
 8001edc:	b570      	push	{r4, r5, r6, lr}
  assert_param(IS_TIM_COUNTER_MODE(htim->Init.CounterMode));
  assert_param(IS_TIM_CLOCKDIVISION_DIV(htim->Init.ClockDivision));
  assert_param(IS_TIM_PERIOD(htim->Init.Period));
  assert_param(IS_TIM_AUTORELOAD_PRELOAD(htim->Init.AutoReloadPreload));

  if (htim->State == HAL_TIM_STATE_RESET)
 8001ede:	f890 303d 	ldrb.w	r3, [r0, #61]	@ 0x3d
 8001ee2:	4604      	mov	r4, r0
 8001ee4:	f003 02ff 	and.w	r2, r3, #255	@ 0xff
 8001ee8:	2b00      	cmp	r3, #0
 8001eea:	d059      	beq.n	8001fa0 <HAL_TIM_PWM_Init+0xc8>
    HAL_TIM_PWM_MspInit(htim);
#endif /* USE_HAL_TIM_REGISTER_CALLBACKS */
  }

  /* Set the TIM state */
  htim->State = HAL_TIM_STATE_BUSY;
 8001eec:	2302      	movs	r3, #2

  /* Init the base time for the PWM */
  TIM_Base_SetConfig(htim->Instance, &htim->Init);
 8001eee:	6822      	ldr	r2, [r4, #0]
{
  uint32_t tmpcr1;
  tmpcr1 = TIMx->CR1;

  /* Set TIM Time Base Unit parameters ---------------------------------------*/
  if (IS_TIM_COUNTER_MODE_SELECT_INSTANCE(TIMx))
 8001ef0:	4e2f      	ldr	r6, [pc, #188]	@ (8001fb0 <HAL_TIM_PWM_Init+0xd8>)
  htim->State = HAL_TIM_STATE_BUSY;
 8001ef2:	f884 303d 	strb.w	r3, [r4, #61]	@ 0x3d
  if (IS_TIM_COUNTER_MODE_SELECT_INSTANCE(TIMx))
 8001ef6:	42b2      	cmp	r2, r6
    tmpcr1 &= ~TIM_CR1_CKD;
    tmpcr1 |= (uint32_t)Structure->ClockDivision;
  }

  /* Set the auto-reload preload */
  MODIFY_REG(tmpcr1, TIM_CR1_ARPE, Structure->AutoReloadPreload);
 8001ef8:	69a5      	ldr	r5, [r4, #24]

  TIMx->CR1 = tmpcr1;

  /* Set the Autoreload value */
  TIMx->ARR = (uint32_t)Structure->Period ;
 8001efa:	68e0      	ldr	r0, [r4, #12]

  /* Set the Prescaler value */
  TIMx->PSC = Structure->Prescaler;
 8001efc:	6861      	ldr	r1, [r4, #4]
  tmpcr1 = TIMx->CR1;
 8001efe:	6813      	ldr	r3, [r2, #0]
  if (IS_TIM_COUNTER_MODE_SELECT_INSTANCE(TIMx))
 8001f00:	d030      	beq.n	8001f64 <HAL_TIM_PWM_Init+0x8c>
 8001f02:	f1b2 4f80 	cmp.w	r2, #1073741824	@ 0x40000000
 8001f06:	d02d      	beq.n	8001f64 <HAL_TIM_PWM_Init+0x8c>
 8001f08:	f5a6 3694 	sub.w	r6, r6, #75776	@ 0x12800
 8001f0c:	42b2      	cmp	r2, r6
 8001f0e:	d03e      	beq.n	8001f8e <HAL_TIM_PWM_Init+0xb6>
 8001f10:	f506 6680 	add.w	r6, r6, #1024	@ 0x400
 8001f14:	42b2      	cmp	r2, r6
 8001f16:	d03a      	beq.n	8001f8e <HAL_TIM_PWM_Init+0xb6>
  MODIFY_REG(tmpcr1, TIM_CR1_ARPE, Structure->AutoReloadPreload);
 8001f18:	f023 0380 	bic.w	r3, r3, #128	@ 0x80
 8001f1c:	432b      	orrs	r3, r5
  TIMx->CR1 = tmpcr1;
 8001f1e:	6013      	str	r3, [r2, #0]
  TIMx->ARR = (uint32_t)Structure->Period ;
 8001f20:	62d0      	str	r0, [r2, #44]	@ 0x2c
  TIMx->PSC = Structure->Prescaler;
 8001f22:	6291      	str	r1, [r2, #40]	@ 0x28
    TIMx->RCR = Structure->RepetitionCounter;
  }

  /* Generate an update event to reload the Prescaler
     and the repetition counter (only for advanced timer) value immediately */
  TIMx->EGR = TIM_EGR_UG;
 8001f24:	2301      	movs	r3, #1
 8001f26:	6153      	str	r3, [r2, #20]

  /* Check if the update flag is set after the Update Generation, if so clear the UIF flag */
  if (HAL_IS_BIT_SET(TIMx->SR, TIM_FLAG_UPDATE))
 8001f28:	6913      	ldr	r3, [r2, #16]
 8001f2a:	07db      	lsls	r3, r3, #31
 8001f2c:	d503      	bpl.n	8001f36 <HAL_TIM_PWM_Init+0x5e>
  {
    /* Clear the update flag */
    CLEAR_BIT(TIMx->SR, TIM_FLAG_UPDATE);
 8001f2e:	6913      	ldr	r3, [r2, #16]
 8001f30:	f023 0301 	bic.w	r3, r3, #1
 8001f34:	6113      	str	r3, [r2, #16]
  htim->DMABurstState = HAL_DMA_BURST_STATE_READY;
 8001f36:	2301      	movs	r3, #1
 8001f38:	f884 3046 	strb.w	r3, [r4, #70]	@ 0x46
  TIM_CHANNEL_STATE_SET_ALL(htim, HAL_TIM_CHANNEL_STATE_READY);
 8001f3c:	f884 303e 	strb.w	r3, [r4, #62]	@ 0x3e
 8001f40:	f884 303f 	strb.w	r3, [r4, #63]	@ 0x3f
 8001f44:	f884 3040 	strb.w	r3, [r4, #64]	@ 0x40
 8001f48:	f884 3041 	strb.w	r3, [r4, #65]	@ 0x41
  TIM_CHANNEL_N_STATE_SET_ALL(htim, HAL_TIM_CHANNEL_STATE_READY);
 8001f4c:	f884 3042 	strb.w	r3, [r4, #66]	@ 0x42
 8001f50:	f884 3043 	strb.w	r3, [r4, #67]	@ 0x43
 8001f54:	f884 3044 	strb.w	r3, [r4, #68]	@ 0x44
 8001f58:	f884 3045 	strb.w	r3, [r4, #69]	@ 0x45
  htim->State = HAL_TIM_STATE_READY;
 8001f5c:	f884 303d 	strb.w	r3, [r4, #61]	@ 0x3d
  return HAL_OK;
 8001f60:	2000      	movs	r0, #0
}
 8001f62:	bd70      	pop	{r4, r5, r6, pc}
    tmpcr1 |= Structure->CounterMode;
 8001f64:	68a6      	ldr	r6, [r4, #8]
    tmpcr1 &= ~(TIM_CR1_DIR | TIM_CR1_CMS);
 8001f66:	f023 0370 	bic.w	r3, r3, #112	@ 0x70
    tmpcr1 |= Structure->CounterMode;
 8001f6a:	4333      	orrs	r3, r6
    tmpcr1 |= (uint32_t)Structure->ClockDivision;
 8001f6c:	6926      	ldr	r6, [r4, #16]
    tmpcr1 &= ~TIM_CR1_CKD;
 8001f6e:	f423 7340 	bic.w	r3, r3, #768	@ 0x300
    tmpcr1 |= (uint32_t)Structure->ClockDivision;
 8001f72:	4333      	orrs	r3, r6
  MODIFY_REG(tmpcr1, TIM_CR1_ARPE, Structure->AutoReloadPreload);
 8001f74:	f023 0380 	bic.w	r3, r3, #128	@ 0x80
 8001f78:	432b      	orrs	r3, r5
  TIMx->CR1 = tmpcr1;
 8001f7a:	6013      	str	r3, [r2, #0]
  if (IS_TIM_REPETITION_COUNTER_INSTANCE(TIMx))
 8001f7c:	4b0c      	ldr	r3, [pc, #48]	@ (8001fb0 <HAL_TIM_PWM_Init+0xd8>)
  TIMx->ARR = (uint32_t)Structure->Period ;
 8001f7e:	62d0      	str	r0, [r2, #44]	@ 0x2c
  if (IS_TIM_REPETITION_COUNTER_INSTANCE(TIMx))
 8001f80:	429a      	cmp	r2, r3
    TIMx->RCR = Structure->RepetitionCounter;
 8001f82:	bf08      	it	eq
 8001f84:	6963      	ldreq	r3, [r4, #20]
  TIMx->PSC = Structure->Prescaler;
 8001f86:	6291      	str	r1, [r2, #40]	@ 0x28
    TIMx->RCR = Structure->RepetitionCounter;
 8001f88:	bf08      	it	eq
 8001f8a:	6313      	streq	r3, [r2, #48]	@ 0x30
 8001f8c:	e7ca      	b.n	8001f24 <HAL_TIM_PWM_Init+0x4c>
    tmpcr1 |= Structure->CounterMode;
 8001f8e:	68a6      	ldr	r6, [r4, #8]
    tmpcr1 &= ~(TIM_CR1_DIR | TIM_CR1_CMS);
 8001f90:	f023 0370 	bic.w	r3, r3, #112	@ 0x70
    tmpcr1 |= Structure->CounterMode;
 8001f94:	4333      	orrs	r3, r6
    tmpcr1 |= (uint32_t)Structure->ClockDivision;
 8001f96:	6926      	ldr	r6, [r4, #16]
    tmpcr1 &= ~TIM_CR1_CKD;
 8001f98:	f423 7340 	bic.w	r3, r3, #768	@ 0x300
    tmpcr1 |= (uint32_t)Structure->ClockDivision;
 8001f9c:	4333      	orrs	r3, r6
 8001f9e:	e7bb      	b.n	8001f18 <HAL_TIM_PWM_Init+0x40>
    htim->Lock = HAL_UNLOCKED;
 8001fa0:	f880 203c 	strb.w	r2, [r0, #60]	@ 0x3c
    HAL_TIM_PWM_MspInit(htim);
 8001fa4:	f7ff f9ca 	bl	800133c <HAL_TIM_PWM_MspInit>
 8001fa8:	e7a0      	b.n	8001eec <HAL_TIM_PWM_Init+0x14>
    return HAL_ERROR;
 8001faa:	2001      	movs	r0, #1
}
 8001fac:	4770      	bx	lr
 8001fae:	bf00      	nop
 8001fb0:	40012c00 	.word	0x40012c00

08001fb4 <HAL_TIM_PWM_Start>:
HAL_StatusTypeDef HAL_TIM_PWM_Start(TIM_HandleTypeDef *htim, uint32_t Channel)
 8001fb4:	bb39      	cbnz	r1, 8002006 <HAL_TIM_PWM_Start+0x52>
 8001fb6:	f890 303e 	ldrb.w	r3, [r0, #62]	@ 0x3e
 8001fba:	2b01      	cmp	r3, #1
 8001fbc:	d12f      	bne.n	800201e <HAL_TIM_PWM_Start+0x6a>
 8001fbe:	2302      	movs	r3, #2
 8001fc0:	f880 303e 	strb.w	r3, [r0, #62]	@ 0x3e
 8001fc4:	2201      	movs	r2, #1
 8001fc6:	6803      	ldr	r3, [r0, #0]
 8001fc8:	f001 011f 	and.w	r1, r1, #31
 8001fcc:	6a18      	ldr	r0, [r3, #32]
 8001fce:	408a      	lsls	r2, r1
 8001fd0:	ea20 0002 	bic.w	r0, r0, r2
 8001fd4:	b410      	push	{r4}
 8001fd6:	6218      	str	r0, [r3, #32]
 8001fd8:	6a19      	ldr	r1, [r3, #32]
 8001fda:	4c20      	ldr	r4, [pc, #128]	@ (800205c <HAL_TIM_PWM_Start+0xa8>)
 8001fdc:	430a      	orrs	r2, r1
 8001fde:	42a3      	cmp	r3, r4
 8001fe0:	621a      	str	r2, [r3, #32]
 8001fe2:	d01e      	beq.n	8002022 <HAL_TIM_PWM_Start+0x6e>
 8001fe4:	f1b3 4f80 	cmp.w	r3, #1073741824	@ 0x40000000
 8001fe8:	d01f      	beq.n	800202a <HAL_TIM_PWM_Start+0x76>
 8001fea:	4a1d      	ldr	r2, [pc, #116]	@ (8002060 <HAL_TIM_PWM_Start+0xac>)
 8001fec:	4293      	cmp	r3, r2
 8001fee:	d01c      	beq.n	800202a <HAL_TIM_PWM_Start+0x76>
 8001ff0:	f502 6280 	add.w	r2, r2, #1024	@ 0x400
 8001ff4:	4293      	cmp	r3, r2
 8001ff6:	d018      	beq.n	800202a <HAL_TIM_PWM_Start+0x76>
 8001ff8:	681a      	ldr	r2, [r3, #0]
 8001ffa:	2000      	movs	r0, #0
 8001ffc:	f042 0201 	orr.w	r2, r2, #1
 8002000:	bc10      	pop	{r4}
 8002002:	601a      	str	r2, [r3, #0]
 8002004:	4770      	bx	lr
 8002006:	2904      	cmp	r1, #4
 8002008:	d017      	beq.n	800203a <HAL_TIM_PWM_Start+0x86>
 800200a:	2908      	cmp	r1, #8
 800200c:	d01d      	beq.n	800204a <HAL_TIM_PWM_Start+0x96>
 800200e:	f890 3041 	ldrb.w	r3, [r0, #65]	@ 0x41
 8002012:	2b01      	cmp	r3, #1
 8002014:	d103      	bne.n	800201e <HAL_TIM_PWM_Start+0x6a>
 8002016:	2302      	movs	r3, #2
 8002018:	f880 3041 	strb.w	r3, [r0, #65]	@ 0x41
 800201c:	e7d2      	b.n	8001fc4 <HAL_TIM_PWM_Start+0x10>
 800201e:	2001      	movs	r0, #1
 8002020:	4770      	bx	lr
 8002022:	6c5a      	ldr	r2, [r3, #68]	@ 0x44
 8002024:	f442 4200 	orr.w	r2, r2, #32768	@ 0x8000
 8002028:	645a      	str	r2, [r3, #68]	@ 0x44
 800202a:	689a      	ldr	r2, [r3, #8]
 800202c:	f002 0207 	and.w	r2, r2, #7
 8002030:	2a06      	cmp	r2, #6
 8002032:	d1e1      	bne.n	8001ff8 <HAL_TIM_PWM_Start+0x44>
 8002034:	2000      	movs	r0, #0
 8002036:	bc10      	pop	{r4}
 8002038:	4770      	bx	lr
 800203a:	f890 303f 	ldrb.w	r3, [r0, #63]	@ 0x3f
 800203e:	2b01      	cmp	r3, #1
 8002040:	d1ed      	bne.n	800201e <HAL_TIM_PWM_Start+0x6a>
 8002042:	2302      	movs	r3, #2
 8002044:	f880 303f 	strb.w	r3, [r0, #63]	@ 0x3f
 8002048:	e7bc      	b.n	8001fc4 <HAL_TIM_PWM_Start+0x10>
 800204a:	f890 3040 	ldrb.w	r3, [r0, #64]	@ 0x40
 800204e:	2b01      	cmp	r3, #1
 8002050:	d1e5      	bne.n	800201e <HAL_TIM_PWM_Start+0x6a>
 8002052:	2302      	movs	r3, #2
 8002054:	f880 3040 	strb.w	r3, [r0, #64]	@ 0x40
 8002058:	e7b4      	b.n	8001fc4 <HAL_TIM_PWM_Start+0x10>
 800205a:	bf00      	nop
 800205c:	40012c00 	.word	0x40012c00
 8002060:	40000400 	.word	0x40000400

08002064 <HAL_TIM_PWM_ConfigChannel>:
{
 8002064:	4603      	mov	r3, r0
  __HAL_LOCK(htim);
 8002066:	f890 003c 	ldrb.w	r0, [r0, #60]	@ 0x3c
 800206a:	2801      	cmp	r0, #1
 800206c:	f000 80b6 	beq.w	80021dc <HAL_TIM_PWM_ConfigChannel+0x178>
 8002070:	2001      	movs	r0, #1
{
 8002072:	b4f0      	push	{r4, r5, r6, r7}
  __HAL_LOCK(htim);
 8002074:	f883 003c 	strb.w	r0, [r3, #60]	@ 0x3c
  switch (Channel)
 8002078:	2a0c      	cmp	r2, #12
 800207a:	d808      	bhi.n	800208e <HAL_TIM_PWM_ConfigChannel+0x2a>
 800207c:	e8df f002 	tbb	[pc, r2]
 8002080:	0707073b 	.word	0x0707073b
 8002084:	07070760 	.word	0x07070760
 8002088:	07070788 	.word	0x07070788
 800208c:	0d          	.byte	0x0d
 800208d:	00          	.byte	0x00
  __HAL_UNLOCK(htim);
 800208e:	2200      	movs	r2, #0
 8002090:	f883 203c 	strb.w	r2, [r3, #60]	@ 0x3c
  switch (Channel)
 8002094:	2001      	movs	r0, #1
}
 8002096:	bcf0      	pop	{r4, r5, r6, r7}
 8002098:	4770      	bx	lr
      TIM_OC4_SetConfig(htim->Instance, sConfig);
 800209a:	681a      	ldr	r2, [r3, #0]
  /* Reset the Output Compare mode and Capture/Compare selection Bits */
  tmpccmrx &= ~TIM_CCMR2_OC4M;
  tmpccmrx &= ~TIM_CCMR2_CC4S;

  /* Select the Output Compare Mode */
  tmpccmrx |= (OC_Config->OCMode << 8U);
 800209c:	680e      	ldr	r6, [r1, #0]
  tmpccer = TIMx->CCER;
 800209e:	6a10      	ldr	r0, [r2, #32]
  TIMx->CCER &= ~TIM_CCER_CC4E;
 80020a0:	6a14      	ldr	r4, [r2, #32]

  /* Reset the Output Polarity level */
  tmpccer &= ~TIM_CCER_CC4P;
 80020a2:	f420 5000 	bic.w	r0, r0, #8192	@ 0x2000
  TIMx->CCER &= ~TIM_CCER_CC4E;
 80020a6:	f424 5480 	bic.w	r4, r4, #4096	@ 0x1000
 80020aa:	6214      	str	r4, [r2, #32]
  tmpcr2 =  TIMx->CR2;
 80020ac:	6855      	ldr	r5, [r2, #4]
  tmpccmrx = TIMx->CCMR2;
 80020ae:	69d4      	ldr	r4, [r2, #28]
  tmpccmrx &= ~TIM_CCMR2_CC4S;
 80020b0:	f424 44e6 	bic.w	r4, r4, #29440	@ 0x7300
  tmpccmrx |= (OC_Config->OCMode << 8U);
 80020b4:	ea44 2406 	orr.w	r4, r4, r6, lsl #8
  /* Set the Output Compare Polarity */
  tmpccer |= (OC_Config->OCPolarity << 12U);
 80020b8:	688e      	ldr	r6, [r1, #8]
 80020ba:	ea40 3006 	orr.w	r0, r0, r6, lsl #12

  if (IS_TIM_BREAK_INSTANCE(TIMx))
 80020be:	4e61      	ldr	r6, [pc, #388]	@ (8002244 <HAL_TIM_PWM_ConfigChannel+0x1e0>)
 80020c0:	42b2      	cmp	r2, r6
 80020c2:	f000 80a9 	beq.w	8002218 <HAL_TIM_PWM_ConfigChannel+0x1b4>
    /* Set the Output Idle state */
    tmpcr2 |= (OC_Config->OCIdleState << 6U);
  }

  /* Write to TIMx CR2 */
  TIMx->CR2 = tmpcr2;
 80020c6:	6055      	str	r5, [r2, #4]

  /* Write to TIMx CCMR2 */
  TIMx->CCMR2 = tmpccmrx;

  /* Set the Capture Compare Register value */
  TIMx->CCR4 = OC_Config->Pulse;
 80020c8:	684d      	ldr	r5, [r1, #4]
  TIMx->CCMR2 = tmpccmrx;
 80020ca:	61d4      	str	r4, [r2, #28]
      htim->Instance->CCMR2 |= sConfig->OCFastMode << 8U;
 80020cc:	690c      	ldr	r4, [r1, #16]
  TIMx->CCR4 = OC_Config->Pulse;
 80020ce:	6415      	str	r5, [r2, #64]	@ 0x40

  /* Write to TIMx CCER */
  TIMx->CCER = tmpccer;
 80020d0:	6210      	str	r0, [r2, #32]
      htim->Instance->CCMR2 |= TIM_CCMR2_OC4PE;
 80020d2:	69d1      	ldr	r1, [r2, #28]
 80020d4:	f441 6100 	orr.w	r1, r1, #2048	@ 0x800
 80020d8:	61d1      	str	r1, [r2, #28]
      htim->Instance->CCMR2 &= ~TIM_CCMR2_OC4FE;
 80020da:	69d1      	ldr	r1, [r2, #28]
 80020dc:	f421 6180 	bic.w	r1, r1, #1024	@ 0x400
 80020e0:	61d1      	str	r1, [r2, #28]
      htim->Instance->CCMR2 |= sConfig->OCFastMode << 8U;
 80020e2:	69d1      	ldr	r1, [r2, #28]
 80020e4:	ea41 2104 	orr.w	r1, r1, r4, lsl #8
 80020e8:	61d1      	str	r1, [r2, #28]
  __HAL_UNLOCK(htim);
 80020ea:	2200      	movs	r2, #0
 80020ec:	f883 203c 	strb.w	r2, [r3, #60]	@ 0x3c
  HAL_StatusTypeDef status = HAL_OK;
 80020f0:	2000      	movs	r0, #0
}
 80020f2:	bcf0      	pop	{r4, r5, r6, r7}
 80020f4:	4770      	bx	lr
      TIM_OC1_SetConfig(htim->Instance, sConfig);
 80020f6:	681a      	ldr	r2, [r3, #0]
  tmpccmrx |= OC_Config->OCMode;
 80020f8:	680e      	ldr	r6, [r1, #0]
  tmpccer = TIMx->CCER;
 80020fa:	6a10      	ldr	r0, [r2, #32]
  TIMx->CCER &= ~TIM_CCER_CC1E;
 80020fc:	6a14      	ldr	r4, [r2, #32]
  tmpccer &= ~TIM_CCER_CC1P;
 80020fe:	f020 0002 	bic.w	r0, r0, #2
  TIMx->CCER &= ~TIM_CCER_CC1E;
 8002102:	f024 0401 	bic.w	r4, r4, #1
 8002106:	6214      	str	r4, [r2, #32]
  tmpcr2 =  TIMx->CR2;
 8002108:	6855      	ldr	r5, [r2, #4]
  tmpccmrx = TIMx->CCMR1;
 800210a:	6994      	ldr	r4, [r2, #24]
  tmpccmrx &= ~TIM_CCMR1_CC1S;
 800210c:	f024 0473 	bic.w	r4, r4, #115	@ 0x73
  tmpccmrx |= OC_Config->OCMode;
 8002110:	4334      	orrs	r4, r6
  tmpccer |= OC_Config->OCPolarity;
 8002112:	688e      	ldr	r6, [r1, #8]
 8002114:	4330      	orrs	r0, r6
  if (IS_TIM_CCXN_INSTANCE(TIMx, TIM_CHANNEL_1))
 8002116:	4e4b      	ldr	r6, [pc, #300]	@ (8002244 <HAL_TIM_PWM_ConfigChannel+0x1e0>)
 8002118:	42b2      	cmp	r2, r6
 800211a:	d061      	beq.n	80021e0 <HAL_TIM_PWM_ConfigChannel+0x17c>
  TIMx->CR2 = tmpcr2;
 800211c:	6055      	str	r5, [r2, #4]
  TIMx->CCR1 = OC_Config->Pulse;
 800211e:	684d      	ldr	r5, [r1, #4]
  TIMx->CCMR1 = tmpccmrx;
 8002120:	6194      	str	r4, [r2, #24]
      htim->Instance->CCMR1 |= sConfig->OCFastMode;
 8002122:	690c      	ldr	r4, [r1, #16]
  TIMx->CCR1 = OC_Config->Pulse;
 8002124:	6355      	str	r5, [r2, #52]	@ 0x34
  TIMx->CCER = tmpccer;
 8002126:	6210      	str	r0, [r2, #32]
      htim->Instance->CCMR1 |= TIM_CCMR1_OC1PE;
 8002128:	6991      	ldr	r1, [r2, #24]
 800212a:	f041 0108 	orr.w	r1, r1, #8
 800212e:	6191      	str	r1, [r2, #24]
      htim->Instance->CCMR1 &= ~TIM_CCMR1_OC1FE;
 8002130:	6991      	ldr	r1, [r2, #24]
 8002132:	f021 0104 	bic.w	r1, r1, #4
 8002136:	6191      	str	r1, [r2, #24]
      htim->Instance->CCMR1 |= sConfig->OCFastMode;
 8002138:	6991      	ldr	r1, [r2, #24]
 800213a:	4321      	orrs	r1, r4
 800213c:	6191      	str	r1, [r2, #24]
      break;
 800213e:	e7d4      	b.n	80020ea <HAL_TIM_PWM_ConfigChannel+0x86>
      TIM_OC2_SetConfig(htim->Instance, sConfig);
 8002140:	681a      	ldr	r2, [r3, #0]
  tmpccmrx |= (OC_Config->OCMode << 8U);
 8002142:	680e      	ldr	r6, [r1, #0]
  tmpccer = TIMx->CCER;
 8002144:	6a10      	ldr	r0, [r2, #32]
  TIMx->CCER &= ~TIM_CCER_CC2E;
 8002146:	6a14      	ldr	r4, [r2, #32]
  tmpccer &= ~TIM_CCER_CC2P;
 8002148:	f020 0020 	bic.w	r0, r0, #32
  TIMx->CCER &= ~TIM_CCER_CC2E;
 800214c:	f024 0410 	bic.w	r4, r4, #16
 8002150:	6214      	str	r4, [r2, #32]
  tmpcr2 =  TIMx->CR2;
 8002152:	6855      	ldr	r5, [r2, #4]
  tmpccmrx = TIMx->CCMR1;
 8002154:	6994      	ldr	r4, [r2, #24]
  tmpccmrx &= ~TIM_CCMR1_CC2S;
 8002156:	f424 44e6 	bic.w	r4, r4, #29440	@ 0x7300
  tmpccmrx |= (OC_Config->OCMode << 8U);
 800215a:	ea44 2406 	orr.w	r4, r4, r6, lsl #8
  tmpccer |= (OC_Config->OCPolarity << 4U);
 800215e:	688e      	ldr	r6, [r1, #8]
 8002160:	ea40 1006 	orr.w	r0, r0, r6, lsl #4
  if (IS_TIM_CCXN_INSTANCE(TIMx, TIM_CHANNEL_2))
 8002164:	4e37      	ldr	r6, [pc, #220]	@ (8002244 <HAL_TIM_PWM_ConfigChannel+0x1e0>)
 8002166:	42b2      	cmp	r2, r6
 8002168:	d047      	beq.n	80021fa <HAL_TIM_PWM_ConfigChannel+0x196>
  TIMx->CR2 = tmpcr2;
 800216a:	6055      	str	r5, [r2, #4]
  TIMx->CCR2 = OC_Config->Pulse;
 800216c:	684d      	ldr	r5, [r1, #4]
  TIMx->CCMR1 = tmpccmrx;
 800216e:	6194      	str	r4, [r2, #24]
      htim->Instance->CCMR1 |= sConfig->OCFastMode << 8U;
 8002170:	690c      	ldr	r4, [r1, #16]
  TIMx->CCR2 = OC_Config->Pulse;
 8002172:	6395      	str	r5, [r2, #56]	@ 0x38
  TIMx->CCER = tmpccer;
 8002174:	6210      	str	r0, [r2, #32]
      htim->Instance->CCMR1 |= TIM_CCMR1_OC2PE;
 8002176:	6991      	ldr	r1, [r2, #24]
 8002178:	f441 6100 	orr.w	r1, r1, #2048	@ 0x800
 800217c:	6191      	str	r1, [r2, #24]
      htim->Instance->CCMR1 &= ~TIM_CCMR1_OC2FE;
 800217e:	6991      	ldr	r1, [r2, #24]
 8002180:	f421 6180 	bic.w	r1, r1, #1024	@ 0x400
 8002184:	6191      	str	r1, [r2, #24]
      htim->Instance->CCMR1 |= sConfig->OCFastMode << 8U;
 8002186:	6991      	ldr	r1, [r2, #24]
 8002188:	ea41 2104 	orr.w	r1, r1, r4, lsl #8
 800218c:	6191      	str	r1, [r2, #24]
      break;
 800218e:	e7ac      	b.n	80020ea <HAL_TIM_PWM_ConfigChannel+0x86>
      TIM_OC3_SetConfig(htim->Instance, sConfig);
 8002190:	681a      	ldr	r2, [r3, #0]
  tmpccmrx |= OC_Config->OCMode;
 8002192:	680e      	ldr	r6, [r1, #0]
  tmpccer = TIMx->CCER;
 8002194:	6a10      	ldr	r0, [r2, #32]
  TIMx->CCER &= ~TIM_CCER_CC3E;
 8002196:	6a14      	ldr	r4, [r2, #32]
  tmpccer &= ~TIM_CCER_CC3P;
 8002198:	f420 7000 	bic.w	r0, r0, #512	@ 0x200
  TIMx->CCER &= ~TIM_CCER_CC3E;
 800219c:	f424 7480 	bic.w	r4, r4, #256	@ 0x100
 80021a0:	6214      	str	r4, [r2, #32]
  tmpcr2 =  TIMx->CR2;
 80021a2:	6855      	ldr	r5, [r2, #4]
  tmpccmrx = TIMx->CCMR2;
 80021a4:	69d4      	ldr	r4, [r2, #28]
  tmpccmrx &= ~TIM_CCMR2_CC3S;
 80021a6:	f024 0473 	bic.w	r4, r4, #115	@ 0x73
  tmpccmrx |= OC_Config->OCMode;
 80021aa:	4334      	orrs	r4, r6
  tmpccer |= (OC_Config->OCPolarity << 8U);
 80021ac:	688e      	ldr	r6, [r1, #8]
 80021ae:	ea40 2006 	orr.w	r0, r0, r6, lsl #8
  if (IS_TIM_CCXN_INSTANCE(TIMx, TIM_CHANNEL_3))
 80021b2:	4e24      	ldr	r6, [pc, #144]	@ (8002244 <HAL_TIM_PWM_ConfigChannel+0x1e0>)
 80021b4:	42b2      	cmp	r2, r6
 80021b6:	d035      	beq.n	8002224 <HAL_TIM_PWM_ConfigChannel+0x1c0>
  TIMx->CR2 = tmpcr2;
 80021b8:	6055      	str	r5, [r2, #4]
  TIMx->CCR3 = OC_Config->Pulse;
 80021ba:	684d      	ldr	r5, [r1, #4]
  TIMx->CCMR2 = tmpccmrx;
 80021bc:	61d4      	str	r4, [r2, #28]
      htim->Instance->CCMR2 |= sConfig->OCFastMode;
 80021be:	690c      	ldr	r4, [r1, #16]
  TIMx->CCR3 = OC_Config->Pulse;
 80021c0:	63d5      	str	r5, [r2, #60]	@ 0x3c
  TIMx->CCER = tmpccer;
 80021c2:	6210      	str	r0, [r2, #32]
      htim->Instance->CCMR2 |= TIM_CCMR2_OC3PE;
 80021c4:	69d1      	ldr	r1, [r2, #28]
 80021c6:	f041 0108 	orr.w	r1, r1, #8
 80021ca:	61d1      	str	r1, [r2, #28]
      htim->Instance->CCMR2 &= ~TIM_CCMR2_OC3FE;
 80021cc:	69d1      	ldr	r1, [r2, #28]
 80021ce:	f021 0104 	bic.w	r1, r1, #4
 80021d2:	61d1      	str	r1, [r2, #28]
      htim->Instance->CCMR2 |= sConfig->OCFastMode;
 80021d4:	69d1      	ldr	r1, [r2, #28]
 80021d6:	4321      	orrs	r1, r4
 80021d8:	61d1      	str	r1, [r2, #28]
      break;
 80021da:	e786      	b.n	80020ea <HAL_TIM_PWM_ConfigChannel+0x86>
  __HAL_LOCK(htim);
 80021dc:	2002      	movs	r0, #2
}
 80021de:	4770      	bx	lr
    tmpccer |= OC_Config->OCNPolarity;
 80021e0:	68ce      	ldr	r6, [r1, #12]
    tmpccer &= ~TIM_CCER_CC1NP;
 80021e2:	f020 0008 	bic.w	r0, r0, #8
    tmpccer |= OC_Config->OCNPolarity;
 80021e6:	4330      	orrs	r0, r6
    tmpcr2 &= ~TIM_CR2_OIS1N;
 80021e8:	f425 7540 	bic.w	r5, r5, #768	@ 0x300
    tmpcr2 |= OC_Config->OCNIdleState;
 80021ec:	e9d1 6705 	ldrd	r6, r7, [r1, #20]
 80021f0:	433e      	orrs	r6, r7
    tmpccer &= ~TIM_CCER_CC1NE;
 80021f2:	f020 0004 	bic.w	r0, r0, #4
    tmpcr2 |= OC_Config->OCNIdleState;
 80021f6:	4335      	orrs	r5, r6
 80021f8:	e790      	b.n	800211c <HAL_TIM_PWM_ConfigChannel+0xb8>
    tmpccer |= (OC_Config->OCNPolarity << 4U);
 80021fa:	68ce      	ldr	r6, [r1, #12]
    tmpccer &= ~TIM_CCER_CC2NP;
 80021fc:	f020 0080 	bic.w	r0, r0, #128	@ 0x80
    tmpccer |= (OC_Config->OCNPolarity << 4U);
 8002200:	ea40 1006 	orr.w	r0, r0, r6, lsl #4
    tmpcr2 &= ~TIM_CR2_OIS2N;
 8002204:	f425 6540 	bic.w	r5, r5, #3072	@ 0xc00
    tmpcr2 |= (OC_Config->OCNIdleState << 2U);
 8002208:	e9d1 6705 	ldrd	r6, r7, [r1, #20]
 800220c:	433e      	orrs	r6, r7
    tmpccer &= ~TIM_CCER_CC2NE;
 800220e:	f020 0040 	bic.w	r0, r0, #64	@ 0x40
    tmpcr2 |= (OC_Config->OCNIdleState << 2U);
 8002212:	ea45 0586 	orr.w	r5, r5, r6, lsl #2
 8002216:	e7a8      	b.n	800216a <HAL_TIM_PWM_ConfigChannel+0x106>
    tmpcr2 |= (OC_Config->OCIdleState << 6U);
 8002218:	694e      	ldr	r6, [r1, #20]
    tmpcr2 &= ~TIM_CR2_OIS4;
 800221a:	f425 4580 	bic.w	r5, r5, #16384	@ 0x4000
    tmpcr2 |= (OC_Config->OCIdleState << 6U);
 800221e:	ea45 1586 	orr.w	r5, r5, r6, lsl #6
 8002222:	e750      	b.n	80020c6 <HAL_TIM_PWM_ConfigChannel+0x62>
    tmpccer |= (OC_Config->OCNPolarity << 8U);
 8002224:	68ce      	ldr	r6, [r1, #12]
    tmpccer &= ~TIM_CCER_CC3NP;
 8002226:	f420 6000 	bic.w	r0, r0, #2048	@ 0x800
    tmpccer |= (OC_Config->OCNPolarity << 8U);
 800222a:	ea40 2006 	orr.w	r0, r0, r6, lsl #8
    tmpcr2 &= ~TIM_CR2_OIS3N;
 800222e:	f425 5540 	bic.w	r5, r5, #12288	@ 0x3000
    tmpcr2 |= (OC_Config->OCNIdleState << 4U);
 8002232:	e9d1 6705 	ldrd	r6, r7, [r1, #20]
 8002236:	433e      	orrs	r6, r7
    tmpccer &= ~TIM_CCER_CC3NE;
 8002238:	f420 6080 	bic.w	r0, r0, #1024	@ 0x400
    tmpcr2 |= (OC_Config->OCNIdleState << 4U);
 800223c:	ea45 1506 	orr.w	r5, r5, r6, lsl #4
 8002240:	e7ba      	b.n	80021b8 <HAL_TIM_PWM_ConfigChannel+0x154>
 8002242:	bf00      	nop
 8002244:	40012c00 	.word	0x40012c00

08002248 <HAL_TIMEx_MasterConfigSynchronization>:
  assert_param(IS_TIM_MASTER_INSTANCE(htim->Instance));
  assert_param(IS_TIM_TRGO_SOURCE(sMasterConfig->MasterOutputTrigger));
  assert_param(IS_TIM_MSM_STATE(sMasterConfig->MasterSlaveMode));

  /* Check input state */
  __HAL_LOCK(htim);
 8002248:	f890 203c 	ldrb.w	r2, [r0, #60]	@ 0x3c
 800224c:	2a01      	cmp	r2, #1
 800224e:	d027      	beq.n	80022a0 <HAL_TIMEx_MasterConfigSynchronization+0x58>
 8002250:	4603      	mov	r3, r0

  /* Change the handler state */
  htim->State = HAL_TIM_STATE_BUSY;
 8002252:	2002      	movs	r0, #2

  /* Get the TIMx CR2 register value */
  tmpcr2 = htim->Instance->CR2;
 8002254:	681a      	ldr	r2, [r3, #0]
{
 8002256:	b430      	push	{r4, r5}
  htim->State = HAL_TIM_STATE_BUSY;
 8002258:	f883 003d 	strb.w	r0, [r3, #61]	@ 0x3d
  tmpcr2 = htim->Instance->CR2;
 800225c:	6850      	ldr	r0, [r2, #4]
  tmpsmcr = htim->Instance->SMCR;

  /* Reset the MMS Bits */
  tmpcr2 &= ~TIM_CR2_MMS;
  /* Select the TRGO source */
  tmpcr2 |=  sMasterConfig->MasterOutputTrigger;
 800225e:	680c      	ldr	r4, [r1, #0]

  /* Update TIMx CR2 */
  htim->Instance->CR2 = tmpcr2;

  if (IS_TIM_SLAVE_INSTANCE(htim->Instance))
 8002260:	4d10      	ldr	r5, [pc, #64]	@ (80022a4 <HAL_TIMEx_MasterConfigSynchronization+0x5c>)
  tmpcr2 &= ~TIM_CR2_MMS;
 8002262:	f020 0070 	bic.w	r0, r0, #112	@ 0x70
  tmpcr2 |=  sMasterConfig->MasterOutputTrigger;
 8002266:	4320      	orrs	r0, r4
  if (IS_TIM_SLAVE_INSTANCE(htim->Instance))
 8002268:	42aa      	cmp	r2, r5
  tmpsmcr = htim->Instance->SMCR;
 800226a:	6894      	ldr	r4, [r2, #8]
  htim->Instance->CR2 = tmpcr2;
 800226c:	6050      	str	r0, [r2, #4]
  if (IS_TIM_SLAVE_INSTANCE(htim->Instance))
 800226e:	d009      	beq.n	8002284 <HAL_TIMEx_MasterConfigSynchronization+0x3c>
 8002270:	f1b2 4f80 	cmp.w	r2, #1073741824	@ 0x40000000
 8002274:	d006      	beq.n	8002284 <HAL_TIMEx_MasterConfigSynchronization+0x3c>
 8002276:	480c      	ldr	r0, [pc, #48]	@ (80022a8 <HAL_TIMEx_MasterConfigSynchronization+0x60>)
 8002278:	4282      	cmp	r2, r0
 800227a:	d003      	beq.n	8002284 <HAL_TIMEx_MasterConfigSynchronization+0x3c>
 800227c:	f500 6080 	add.w	r0, r0, #1024	@ 0x400
 8002280:	4282      	cmp	r2, r0
 8002282:	d104      	bne.n	800228e <HAL_TIMEx_MasterConfigSynchronization+0x46>
  {
    /* Reset the MSM Bit */
    tmpsmcr &= ~TIM_SMCR_MSM;
    /* Set master mode */
    tmpsmcr |= sMasterConfig->MasterSlaveMode;
 8002284:	6849      	ldr	r1, [r1, #4]
    tmpsmcr &= ~TIM_SMCR_MSM;
 8002286:	f024 0480 	bic.w	r4, r4, #128	@ 0x80
    tmpsmcr |= sMasterConfig->MasterSlaveMode;
 800228a:	430c      	orrs	r4, r1

    /* Update TIMx SMCR */
    htim->Instance->SMCR = tmpsmcr;
 800228c:	6094      	str	r4, [r2, #8]
  }

  /* Change the htim state */
  htim->State = HAL_TIM_STATE_READY;

  __HAL_UNLOCK(htim);
 800228e:	2200      	movs	r2, #0
  htim->State = HAL_TIM_STATE_READY;
 8002290:	2101      	movs	r1, #1
  __HAL_UNLOCK(htim);
 8002292:	f883 203c 	strb.w	r2, [r3, #60]	@ 0x3c
  htim->State = HAL_TIM_STATE_READY;
 8002296:	f883 103d 	strb.w	r1, [r3, #61]	@ 0x3d

  return HAL_OK;
 800229a:	4610      	mov	r0, r2
}
 800229c:	bc30      	pop	{r4, r5}
 800229e:	4770      	bx	lr
  __HAL_LOCK(htim);
 80022a0:	2002      	movs	r0, #2
}
 80022a2:	4770      	bx	lr
 80022a4:	40012c00 	.word	0x40012c00
 80022a8:	40000400 	.word	0x40000400

080022ac <__libc_init_array>:
 80022ac:	b570      	push	{r4, r5, r6, lr}
 80022ae:	2600      	movs	r6, #0
 80022b0:	4d0c      	ldr	r5, [pc, #48]	@ (80022e4 <__libc_init_array+0x38>)
 80022b2:	4c0d      	ldr	r4, [pc, #52]	@ (80022e8 <__libc_init_array+0x3c>)
 80022b4:	1b64      	subs	r4, r4, r5
 80022b6:	10a4      	asrs	r4, r4, #2
 80022b8:	42a6      	cmp	r6, r4
 80022ba:	d109      	bne.n	80022d0 <__libc_init_array+0x24>
 80022bc:	f000 f81a 	bl	80022f4 <_init>
 80022c0:	2600      	movs	r6, #0
 80022c2:	4d0a      	ldr	r5, [pc, #40]	@ (80022ec <__libc_init_array+0x40>)
 80022c4:	4c0a      	ldr	r4, [pc, #40]	@ (80022f0 <__libc_init_array+0x44>)
 80022c6:	1b64      	subs	r4, r4, r5
 80022c8:	10a4      	asrs	r4, r4, #2
 80022ca:	42a6      	cmp	r6, r4
 80022cc:	d105      	bne.n	80022da <__libc_init_array+0x2e>
 80022ce:	bd70      	pop	{r4, r5, r6, pc}
 80022d0:	f855 3b04 	ldr.w	r3, [r5], #4
 80022d4:	4798      	blx	r3
 80022d6:	3601      	adds	r6, #1
 80022d8:	e7ee      	b.n	80022b8 <__libc_init_array+0xc>
 80022da:	f855 3b04 	ldr.w	r3, [r5], #4
 80022de:	4798      	blx	r3
 80022e0:	3601      	adds	r6, #1
 80022e2:	e7f2      	b.n	80022ca <__libc_init_array+0x1e>
 80022e4:	08002570 	.word	0x08002570
 80022e8:	08002570 	.word	0x08002570
 80022ec:	08002570 	.word	0x08002570
 80022f0:	08002574 	.word	0x08002574

080022f4 <_init>:
 80022f4:	b5f8      	push	{r3, r4, r5, r6, r7, lr}
 80022f6:	bf00      	nop
 80022f8:	bcf8      	pop	{r3, r4, r5, r6, r7}
 80022fa:	bc08      	pop	{r3}
 80022fc:	469e      	mov	lr, r3
 80022fe:	4770      	bx	lr

08002300 <_fini>:
 8002300:	b5f8      	push	{r3, r4, r5, r6, r7, lr}
 8002302:	bf00      	nop
 8002304:	bcf8      	pop	{r3, r4, r5, r6, r7}
 8002306:	bc08      	pop	{r3}
 8002308:	469e      	mov	lr, r3
 800230a:	4770      	bx	lr
